(lp0
S'rr_data/a0073.rr.txt\n'
p1
aS'rr_data/e01719.rr.txt\n'
p2
aS'rr_data/e01638.rr.txt\n'
p3
aS'rr_data/d0004.rr.txt\n'
p4
aS'rr_data/b0033.rr.txt\n'
p5
aS'rr_data/a0110.rr.txt\n'
p6
aS'rr_data/f0099.rr.txt\n'
p7
aS'rr_data/a0369.rr.txt\n'
p8
aS'rr_data/b0043.rr.txt\n'
p9
aS'rr_data/e01881.rr.txt\n'
p10
aS'rr_data/f0096.rr.txt\n'
p11
aS'rr_data/e01992.rr.txt\n'
p12
aS'rr_data/a0255.rr.txt\n'
p13
aS'rr_data/e01953.rr.txt\n'
p14
aS'rr_data/a0175.rr.txt\n'
p15
aS'rr_data/b0334.rr.txt\n'
p16
aS'rr_data/e00693.rr.txt\n'
p17
aS'rr_data/a0397.rr.txt\n'
p18
aS'rr_data/a0044.rr.txt\n'
p19
aS'rr_data/a0214.rr.txt\n'
p20
aS'rr_data/a0060.rr.txt\n'
p21
aS'rr_data/a0030.rr.txt\n'
p22
aS'rr_data/b0190.rr.txt\n'
p23
aS'rr_data/a0120.rr.txt\n'
p24
aS'rr_data/a0237.rr.txt\n'
p25
aS'rr_data/a0284.rr.txt\n'
p26
aS'rr_data/b0465.rr.txt\n'
p27
aS'rr_data/a0083.rr.txt\n'
p28
aS'rr_data/e00097.rr.txt\n'
p29
aS'rr_data/a0173.rr.txt\n'
p30
aS'rr_data/e00228.rr.txt\n'
p31
aS'rr_data/a0378.rr.txt\n'
p32
aS'rr_data/a0034.rr.txt\n'
p33
aS'rr_data/a0281.rr.txt\n'
p34
aS'rr_data/c0025.rr.txt\n'
p35
aS'rr_data/c0012.rr.txt\n'
p36
aS'rr_data/a0064.rr.txt\n'
p37
aS'rr_data/a0162.rr.txt\n'
p38
aS'rr_data/b0476.rr.txt\n'
p39
aS'rr_data/e01375.rr.txt\n'
p40
aS'rr_data/a0282.rr.txt\n'
p41
aS'rr_data/a0001.rr.txt\n'
p42
aS'rr_data/b0046.rr.txt\n'
p43
aS'rr_data/d0052.rr.txt\n'
p44
aS'rr_data/a0159.rr.txt\n'
p45
aS'rr_data/e01689.rr.txt\n'
p46
aS'rr_data/e00648.rr.txt\n'
p47
aS'rr_data/a0194.rr.txt\n'
p48
aS'rr_data/c0015.rr.txt\n'
p49
aS'rr_data/d0021.rr.txt\n'
p50
aS'rr_data/e00936.rr.txt\n'
p51
aS'rr_data/a0226.rr.txt\n'
p52
aS'rr_data/e02032.rr.txt\n'
p53
aS'rr_data/e00657.rr.txt\n'
p54
aS'rr_data/a0319.rr.txt\n'
p55
aS'rr_data/a0338.rr.txt\n'
p56
aS'rr_data/a0207.rr.txt\n'
p57
aS'rr_data/e01812.rr.txt\n'
p58
aS'rr_data/e01581.rr.txt\n'
p59
aS'rr_data/a0403.rr.txt\n'
p60
aS'rr_data/e01084.rr.txt\n'
p61
aS'rr_data/e00622.rr.txt\n'
p62
aS'rr_data/b0450.rr.txt\n'
p63
aS'rr_data/a0043.rr.txt\n'
p64
aS'rr_data/a0370.rr.txt\n'
p65
aS'rr_data/e01365.rr.txt\n'
p66
aS'rr_data/b0164.rr.txt\n'
p67
aS'rr_data/d0003.rr.txt\n'
p68
aS'rr_data/a0399.rr.txt\n'
p69
aS'rr_data/d0033.rr.txt\n'
p70
aS'rr_data/a0315.rr.txt\n'
p71
aS'rr_data/c0005.rr.txt\n'
p72
aS'rr_data/a0251.rr.txt\n'
p73
aS'rr_data/b0455.rr.txt\n'
p74
aS'rr_data/b0171.rr.txt\n'
p75
aS'rr_data/a0146.rr.txt\n'
p76
aS'rr_data/a0100.rr.txt\n'
p77
aS'rr_data/a0389.rr.txt\n'
p78
aS'rr_data/e01711.rr.txt\n'
p79
aS'rr_data/e00980.rr.txt\n'
p80
aS'rr_data/e01568.rr.txt\n'
p81
aS'rr_data/f0085.rr.txt\n'
p82
aS'rr_data/a0278.rr.txt\n'
p83
aS'rr_data/b0318.rr.txt\n'
p84
aS'rr_data/a0390.rr.txt\n'
p85
aS'rr_data/a0382.rr.txt\n'
p86
aS'rr_data/a0149.rr.txt\n'
p87
aS'rr_data/e01605.rr.txt\n'
p88
aS'rr_data/b0444.rr.txt\n'
p89
aS'rr_data/a0277.rr.txt\n'
p90
aS'rr_data/e01962.rr.txt\n'
p91
aS'rr_data/a0313.rr.txt\n'
p92
aS'rr_data/e01494.rr.txt\n'
p93
aS'rr_data/a0062.rr.txt\n'
p94
aS'rr_data/a0272.rr.txt\n'
p95
aS'rr_data/a0057.rr.txt\n'
p96
aS'rr_data/e01623.rr.txt\n'
p97
aS'rr_data/a0365.rr.txt\n'
p98
aS'rr_data/a0077.rr.txt\n'
p99
aS'rr_data/a0020.rr.txt\n'
p100
aS'rr_data/e01421.rr.txt\n'
p101
aS'rr_data/a0339.rr.txt\n'
p102
aS'rr_data/b0292.rr.txt\n'
p103
aS'rr_data/e02108.rr.txt\n'
p104
aS'rr_data/a0276.rr.txt\n'
p105
aS'rr_data/b0106.rr.txt\n'
p106
aS'rr_data/e00336.rr.txt\n'
p107
aS'rr_data/e01351.rr.txt\n'
p108
aS'rr_data/e01846.rr.txt\n'
p109
aS'rr_data/b0295.rr.txt\n'
p110
aS'rr_data/a0138.rr.txt\n'
p111
aS'rr_data/a0128.rr.txt\n'
p112
aS'rr_data/e00142.rr.txt\n'
p113
aS'rr_data/b0271.rr.txt\n'
p114
aS'rr_data/e01461.rr.txt\n'
p115
aS'rr_data/e01637.rr.txt\n'
p116
aS'rr_data/a0040.rr.txt\n'
p117
aS'rr_data/e01013.rr.txt\n'
p118
aS'rr_data/a0078.rr.txt\n'
p119
aS'rr_data/a0137.rr.txt\n'
p120
aS'rr_data/f0063.rr.txt\n'
p121
aS'rr_data/a0036.rr.txt\n'
p122
aS'rr_data/a0042.rr.txt\n'
p123
aS'rr_data/a0326.rr.txt\n'
p124
aS'rr_data/e02135.rr.txt\n'
p125
aS'rr_data/e01869.rr.txt\n'
p126
aS'rr_data/a0360.rr.txt\n'
p127
aS'rr_data/a0031.rr.txt\n'
p128
aS'rr_data/a0198.rr.txt\n'
p129
aS'rr_data/a0133.rr.txt\n'
p130
aS'rr_data/e01280.rr.txt\n'
p131
aS'rr_data/e00551.rr.txt\n'
p132
aS'rr_data/b0032.rr.txt\n'
p133
aS'rr_data/e02065.rr.txt\n'
p134
aS'rr_data/e00603.rr.txt\n'
p135
aS'rr_data/e00699.rr.txt\n'
p136
aS'rr_data/e01529.rr.txt\n'
p137
aS'rr_data/c0024.rr.txt\n'
p138
aS'rr_data/b0327.rr.txt\n'
p139
aS'rr_data/e01967.rr.txt\n'
p140
aS'rr_data/e01511.rr.txt\n'
p141
aS'rr_data/b0428.rr.txt\n'
p142
aS'rr_data/e01479.rr.txt\n'
p143
aS'rr_data/e01062.rr.txt\n'
p144
aS'rr_data/e00627.rr.txt\n'
p145
aS'rr_data/a0246.rr.txt\n'
p146
aS'rr_data/f0068.rr.txt\n'
p147
aS'rr_data/f0089.rr.txt\n'
p148
aS'rr_data/e01399.rr.txt\n'
p149
aS'rr_data/a0014.rr.txt\n'
p150
aS'rr_data/a0059.rr.txt\n'
p151
aS'rr_data/a0072.rr.txt\n'
p152
aS'rr_data/a0048.rr.txt\n'
p153
aS'rr_data/e00456.rr.txt\n'
p154
aS'rr_data/a0257.rr.txt\n'
p155
aS'rr_data/a0104.rr.txt\n'
p156
aS'rr_data/d0018.rr.txt\n'
p157
aS'rr_data/a0358.rr.txt\n'
p158
aS'rr_data/a0348.rr.txt\n'
p159
aS'rr_data/a0236.rr.txt\n'
p160
aS'rr_data/a0187.rr.txt\n'
p161
aS'rr_data/a0192.rr.txt\n'
p162
aS'rr_data/e00792.rr.txt\n'
p163
aS'rr_data/d0035.rr.txt\n'
p164
aS'rr_data/a0087.rr.txt\n'
p165
aS'rr_data/a0357.rr.txt\n'
p166
aS'rr_data/a0205.rr.txt\n'
p167
aS'rr_data/e01289.rr.txt\n'
p168
aS'rr_data/f0064.rr.txt\n'
p169
aS'rr_data/b0299.rr.txt\n'
p170
aS'rr_data/e00619.rr.txt\n'
p171
aS'rr_data/a0152.rr.txt\n'
p172
aS'rr_data/a0230.rr.txt\n'
p173
aS'rr_data/a0157.rr.txt\n'
p174
aS'rr_data/e00737.rr.txt\n'
p175
aS'rr_data/a0089.rr.txt\n'
p176
aS'rr_data/a0268.rr.txt\n'
p177
aS'rr_data/a0114.rr.txt\n'
p178
aS'rr_data/e00388.rr.txt\n'
p179
aS'rr_data/a0395.rr.txt\n'
p180
aS'rr_data/f0103.rr.txt\n'
p181
aS'rr_data/a0398.rr.txt\n'
p182
aS'rr_data/e01602.rr.txt\n'
p183
aS'rr_data/b0279.rr.txt\n'
p184
aS'rr_data/e00601.rr.txt\n'
p185
aS'rr_data/a0305.rr.txt\n'
p186
aS'rr_data/a0262.rr.txt\n'
p187
aS'rr_data/e02101.rr.txt\n'
p188
aS'rr_data/e01978.rr.txt\n'
p189
aS'rr_data/a0215.rr.txt\n'
p190
aS'rr_data/a0217.rr.txt\n'
p191
aS'rr_data/b0077.rr.txt\n'
p192
aS'rr_data/b0057.rr.txt\n'
p193
aS'rr_data/b0367.rr.txt\n'
p194
aS'rr_data/a0364.rr.txt\n'
p195
aS'rr_data/b0243.rr.txt\n'
p196
aS'rr_data/e01246.rr.txt\n'
p197
aS'rr_data/b0307.rr.txt\n'
p198
aS'rr_data/a0183.rr.txt\n'
p199
aS'rr_data/a0223.rr.txt\n'
p200
aS'rr_data/a0296.rr.txt\n'
p201
aS'rr_data/d0017.rr.txt\n'
p202
aS'rr_data/a0349.rr.txt\n'
p203
aS'rr_data/a0132.rr.txt\n'
p204
aS'rr_data/e01684.rr.txt\n'
p205
aS'rr_data/a0147.rr.txt\n'
p206
aS'rr_data/f0079.rr.txt\n'
p207
aS'rr_data/d0046.rr.txt\n'
p208
aS'rr_data/d0009.rr.txt\n'
p209
aS'rr_data/a0115.rr.txt\n'
p210
aS'rr_data/f0050.rr.txt\n'
p211
aS'rr_data/a0297.rr.txt\n'
p212
aS'rr_data/d0029.rr.txt\n'
p213
aS'rr_data/a0387.rr.txt\n'
p214
aS'rr_data/f0072.rr.txt\n'
p215
aS'rr_data/e01971.rr.txt\n'
p216
aS'rr_data/a0197.rr.txt\n'
p217
aS'rr_data/a0374.rr.txt\n'
p218
aS'rr_data/e01382.rr.txt\n'
p219
aS'rr_data/a0232.rr.txt\n'
p220
aS'rr_data/a0101.rr.txt\n'
p221
aS'rr_data/e00475.rr.txt\n'
p222
aS'rr_data/a0041.rr.txt\n'
p223
aS'rr_data/e01272.rr.txt\n'
p224
aS'rr_data/b0136.rr.txt\n'
p225
aS'rr_data/d0022.rr.txt\n'
p226
aS'rr_data/b0140.rr.txt\n'
p227
aS'rr_data/a0347.rr.txt\n'
p228
aS'rr_data/a0333.rr.txt\n'
p229
aS'rr_data/b0467.rr.txt\n'
p230
aS'rr_data/a0320.rr.txt\n'
p231
aS'rr_data/a0218.rr.txt\n'
p232
aS'rr_data/a0345.rr.txt\n'
p233
aS'rr_data/e02102.rr.txt\n'
p234
aS'rr_data/e00880.rr.txt\n'
p235
aS'rr_data/e00998.rr.txt\n'
p236
aS'rr_data/c0028.rr.txt\n'
p237
aS'rr_data/a0267.rr.txt\n'
p238
aS'rr_data/b0120.rr.txt\n'
p239
aS'rr_data/b0023.rr.txt\n'
p240
aS'rr_data/e00152.rr.txt\n'
p241
aS'rr_data/a0075.rr.txt\n'
p242
aS'rr_data/e01263.rr.txt\n'
p243
aS'rr_data/e00537.rr.txt\n'
p244
aS'rr_data/a0022.rr.txt\n'
p245
aS'rr_data/e00295.rr.txt\n'
p246
aS'rr_data/c0018.rr.txt\n'
p247
aS'rr_data/a0047.rr.txt\n'
p248
aS'rr_data/e01055.rr.txt\n'
p249
aS'rr_data/e02030.rr.txt\n'
p250
aS'rr_data/f0052.rr.txt\n'
p251
aS'rr_data/e01756.rr.txt\n'
p252
aS'rr_data/a0056.rr.txt\n'
p253
aS'rr_data/c0009.rr.txt\n'
p254
aS'rr_data/c0026.rr.txt\n'
p255
aS'rr_data/b0273.rr.txt\n'
p256
aS'rr_data/c0001.rr.txt\n'
p257
aS'rr_data/a0291.rr.txt\n'
p258
aS'rr_data/a0368.rr.txt\n'
p259
aS'rr_data/d0011.rr.txt\n'
p260
aS'rr_data/a0327.rr.txt\n'
p261
aS'rr_data/a0188.rr.txt\n'
p262
aS'rr_data/e01857.rr.txt\n'
p263
aS'rr_data/d0012.rr.txt\n'
p264
aS'rr_data/b0233.rr.txt\n'
p265
aS'rr_data/b0208.rr.txt\n'
p266
aS'rr_data/a0142.rr.txt\n'
p267
aS'rr_data/f0060.rr.txt\n'
p268
aS'rr_data/a0079.rr.txt\n'
p269
aS'rr_data/a0375.rr.txt\n'
p270
aS'rr_data/d0014.rr.txt\n'
p271
aS'rr_data/b0427.rr.txt\n'
p272
aS'rr_data/a0130.rr.txt\n'
p273
aS'rr_data/b0239.rr.txt\n'
p274
aS'rr_data/b0418.rr.txt\n'
p275
aS'rr_data/e01215.rr.txt\n'
p276
aS'rr_data/e01457.rr.txt\n'
p277
aS'rr_data/a0356.rr.txt\n'
p278
aS'rr_data/a0145.rr.txt\n'
p279
aS'rr_data/e00703.rr.txt\n'
p280
aS'rr_data/a0121.rr.txt\n'
p281
aS'rr_data/a0172.rr.txt\n'
p282
aS'rr_data/e00605.rr.txt\n'
p283
aS'rr_data/a0113.rr.txt\n'
p284
aS'rr_data/e01376.rr.txt\n'
p285
aS'rr_data/b0117.rr.txt\n'
p286
aS'rr_data/a0269.rr.txt\n'
p287
aS'rr_data/a0381.rr.txt\n'
p288
aS'rr_data/a0292.rr.txt\n'
p289
aS'rr_data/c0019.rr.txt\n'
p290
aS'rr_data/e01284.rr.txt\n'
p291
aS'rr_data/e00528.rr.txt\n'
p292
aS'rr_data/a0160.rr.txt\n'
p293
aS'rr_data/b0248.rr.txt\n'
p294
aS'rr_data/a0006.rr.txt\n'
p295
aS'rr_data/a0168.rr.txt\n'
p296
aS'rr_data/a0402.rr.txt\n'
p297
aS'rr_data/c0023.rr.txt\n'
p298
aS'rr_data/a0039.rr.txt\n'
p299
aS'rr_data/e01341.rr.txt\n'
p300
aS'rr_data/e01922.rr.txt\n'
p301
aS'rr_data/b0278.rr.txt\n'
p302
aS'rr_data/b0361.rr.txt\n'
p303
aS'rr_data/e01856.rr.txt\n'
p304
aS'rr_data/e01160.rr.txt\n'
p305
aS'rr_data/f0057.rr.txt\n'
p306
aS'rr_data/b0013.rr.txt\n'
p307
aS'rr_data/a0404.rr.txt\n'
p308
aS'rr_data/e00766.rr.txt\n'
p309
aS'rr_data/a0321.rr.txt\n'
p310
aS'rr_data/f0003.rr.txt\n'
p311
aS'rr_data/b0319.rr.txt\n'
p312
aS'rr_data/a0209.rr.txt\n'
p313
aS'rr_data/d0034.rr.txt\n'
p314
aS'rr_data/b0437.rr.txt\n'
p315
aS'rr_data/b0068.rr.txt\n'
p316
aS'rr_data/a0322.rr.txt\n'
p317
aS'rr_data/f0041.rr.txt\n'
p318
aS'rr_data/e01686.rr.txt\n'
p319
aS'rr_data/a0084.rr.txt\n'
p320
aS'rr_data/a0058.rr.txt\n'
p321
aS'rr_data/a0350.rr.txt\n'
p322
aS'rr_data/a0286.rr.txt\n'
p323
aS'rr_data/f0034.rr.txt\n'
p324
aS'rr_data/e00275.rr.txt\n'
p325
aS'rr_data/c0020.rr.txt\n'
p326
aS'rr_data/a0202.rr.txt\n'
p327
aS'rr_data/a0341.rr.txt\n'
p328
aS'rr_data/a0225.rr.txt\n'
p329
aS'rr_data/a0312.rr.txt\n'
p330
aS'rr_data/b0342.rr.txt\n'
p331
aS'rr_data/a0200.rr.txt\n'
p332
aS'rr_data/a0045.rr.txt\n'
p333
aS'rr_data/a0373.rr.txt\n'
p334
aS'rr_data/b0280.rr.txt\n'
p335
aS'rr_data/a0186.rr.txt\n'
p336
aS'rr_data/a0124.rr.txt\n'
p337
aS'rr_data/b0263.rr.txt\n'
p338
aS'rr_data/a0018.rr.txt\n'
p339
aS'rr_data/e00071.rr.txt\n'
p340
aS'rr_data/e00477.rr.txt\n'
p341
aS'rr_data/a0026.rr.txt\n'
p342
aS'rr_data/b0148.rr.txt\n'
p343
aS'rr_data/a0151.rr.txt\n'
p344
aS'rr_data/e01824.rr.txt\n'
p345
aS'rr_data/a0280.rr.txt\n'
p346
aS'rr_data/a0010.rr.txt\n'
p347
aS'rr_data/c0031.rr.txt\n'
p348
aS'rr_data/a0024.rr.txt\n'
p349
aS'rr_data/e01572.rr.txt\n'
p350
aS'rr_data/a0300.rr.txt\n'
p351
aS'rr_data/a0249.rr.txt\n'
p352
aS'rr_data/a0111.rr.txt\n'
p353
aS'rr_data/a0260.rr.txt\n'
p354
aS'rr_data/e01218.rr.txt\n'
p355
aS'rr_data/b0390.rr.txt\n'
p356
aS'rr_data/a0017.rr.txt\n'
p357
aS'rr_data/a0308.rr.txt\n'
p358
aS'rr_data/a0265.rr.txt\n'
p359
aS'rr_data/f0020.rr.txt\n'
p360
aS'rr_data/e01531.rr.txt\n'
p361
aS'rr_data/b0018.rr.txt\n'
p362
aS'rr_data/a0222.rr.txt\n'
p363
aS'rr_data/e00591.rr.txt\n'
p364
aS'rr_data/a0051.rr.txt\n'
p365
aS'rr_data/a0074.rr.txt\n'
p366
aS'rr_data/e01097.rr.txt\n'
p367
aS'rr_data/d0008.rr.txt\n'
p368
aS'rr_data/e00020.rr.txt\n'
p369
aS'rr_data/a0252.rr.txt\n'
p370
aS'rr_data/e01374.rr.txt\n'
p371
aS'rr_data/a0392.rr.txt\n'
p372
aS'rr_data/b0235.rr.txt\n'
p373
aS'rr_data/e01483.rr.txt\n'
p374
aS'rr_data/f0012.rr.txt\n'
p375
aS'rr_data/a0275.rr.txt\n'
p376
aS'rr_data/a0005.rr.txt\n'
p377
aS'rr_data/b0251.rr.txt\n'
p378
aS'rr_data/a0033.rr.txt\n'
p379
aS'rr_data/f0071.rr.txt\n'
p380
aS'rr_data/f0069.rr.txt\n'
p381
aS'rr_data/b0008.rr.txt\n'
p382
aS'rr_data/a0279.rr.txt\n'
p383
aS'rr_data/d0032.rr.txt\n'
p384
aS'rr_data/b0030.rr.txt\n'
p385
aS'rr_data/e00328.rr.txt\n'
p386
aS'rr_data/a0095.rr.txt\n'
p387
aS'rr_data/e00713.rr.txt\n'
p388
aS'rr_data/e01205.rr.txt\n'
p389
aS'rr_data/a0383.rr.txt\n'
p390
aS'rr_data/e01651.rr.txt\n'
p391
aS'rr_data/a0344.rr.txt\n'
p392
aS'rr_data/c0010.rr.txt\n'
p393
aS'rr_data/e02044.rr.txt\n'
p394
aS'rr_data/a0331.rr.txt\n'
p395
aS'rr_data/a0066.rr.txt\n'
p396
aS'rr_data/a0228.rr.txt\n'
p397
aS'rr_data/e00216.rr.txt\n'
p398
aS'rr_data/e01298.rr.txt\n'
p399
aS'rr_data/a0063.rr.txt\n'
p400
aS'rr_data/a0090.rr.txt\n'
p401
aS'rr_data/e00562.rr.txt\n'
p402
aS'rr_data/e00359.rr.txt\n'
p403
aS'rr_data/b0436.rr.txt\n'
p404
aS'rr_data/a0371.rr.txt\n'
p405
aS'rr_data/e01226.rr.txt\n'
p406
aS'rr_data/b0130.rr.txt\n'
p407
aS'rr_data/e00812.rr.txt\n'
p408
aS'rr_data/e00305.rr.txt\n'
p409
aS'rr_data/a0335.rr.txt\n'
p410
aS'rr_data/a0388.rr.txt\n'
p411
aS'rr_data/a0224.rr.txt\n'
p412
aS'rr_data/c0008.rr.txt\n'
p413
aS'rr_data/e00461.rr.txt\n'
p414
aS'rr_data/c0017.rr.txt\n'
p415
aS'rr_data/a0067.rr.txt\n'
p416
aS'rr_data/b0048.rr.txt\n'
p417
aS'rr_data/e01601.rr.txt\n'
p418
aS'rr_data/a0099.rr.txt\n'
p419
aS'rr_data/b0016.rr.txt\n'
p420
aS'rr_data/a0273.rr.txt\n'
p421
aS'rr_data/e01668.rr.txt\n'
p422
aS'rr_data/a0384.rr.txt\n'
p423
aS'rr_data/e01237.rr.txt\n'
p424
aS'rr_data/a0220.rr.txt\n'
p425
aS'rr_data/d0039.rr.txt\n'
p426
aS'rr_data/a0166.rr.txt\n'
p427
aS'rr_data/c0027.rr.txt\n'
p428
aS'rr_data/a0254.rr.txt\n'
p429
aS'rr_data/e00871.rr.txt\n'
p430
aS'rr_data/b0471.rr.txt\n'
p431
aS'rr_data/e00176.rr.txt\n'
p432
aS'rr_data/a0037.rr.txt\n'
p433
aS'rr_data/b0265.rr.txt\n'
p434
aS'rr_data/e00811.rr.txt\n'
p435
aS'rr_data/b0365.rr.txt\n'
p436
aS'rr_data/b0063.rr.txt\n'
p437
aS'rr_data/e00304.rr.txt\n'
p438
aS'rr_data/e00924.rr.txt\n'
p439
aS'rr_data/b0446.rr.txt\n'
p440
aS'rr_data/b0257.rr.txt\n'
p441
aS'rr_data/f0029.rr.txt\n'
p442
aS'rr_data/e02121.rr.txt\n'
p443
aS'rr_data/a0123.rr.txt\n'
p444
aS'rr_data/b0344.rr.txt\n'
p445
aS'rr_data/f0082.rr.txt\n'
p446
aS'rr_data/a0170.rr.txt\n'
p447
aS'rr_data/a0126.rr.txt\n'
p448
aS'rr_data/a0213.rr.txt\n'
p449
aS'rr_data/c0002.rr.txt\n'
p450
aS'rr_data/e01299.rr.txt\n'
p451
aS'rr_data/f0093.rr.txt\n'
p452
aS'rr_data/a0117.rr.txt\n'
p453
aS'rr_data/a0144.rr.txt\n'
p454
aS'rr_data/e01105.rr.txt\n'
p455
aS'rr_data/b0384.rr.txt\n'
p456
aS'rr_data/e01787.rr.txt\n'
p457
aS'rr_data/e00195.rr.txt\n'
p458
aS'rr_data/b0395.rr.txt\n'
p459
aS'rr_data/a0180.rr.txt\n'
p460
aS'rr_data/e02133.rr.txt\n'
p461
aS'rr_data/f0008.rr.txt\n'
p462
aS'rr_data/a0150.rr.txt\n'
p463
aS'rr_data/b0484.rr.txt\n'
p464
aS'rr_data/a0261.rr.txt\n'
p465
aS'rr_data/e00048.rr.txt\n'
p466
aS'rr_data/e01832.rr.txt\n'
p467
aS'rr_data/e01559.rr.txt\n'
p468
aS'rr_data/f0018.rr.txt\n'
p469
aS'rr_data/e00935.rr.txt\n'
p470
aS'rr_data/e00330.rr.txt\n'
p471
aS'rr_data/e01661.rr.txt\n'
p472
aS'rr_data/e00120.rr.txt\n'
p473
aS'rr_data/a0306.rr.txt\n'
p474
aS'rr_data/e00321.rr.txt\n'
p475
aS'rr_data/d0019.rr.txt\n'
p476
aS'rr_data/d0051.rr.txt\n'
p477
aS'rr_data/b0159.rr.txt\n'
p478
aS'rr_data/a0244.rr.txt\n'
p479
aS'rr_data/a0177.rr.txt\n'
p480
aS'rr_data/a0201.rr.txt\n'
p481
aS'rr_data/a0219.rr.txt\n'
p482
aS'rr_data/a0076.rr.txt\n'
p483
aS'rr_data/e00824.rr.txt\n'
p484
aS'rr_data/a0240.rr.txt\n'
p485
aS'rr_data/a0008.rr.txt\n'
p486
aS'rr_data/a0021.rr.txt\n'
p487
aS'rr_data/b0037.rr.txt\n'
p488
aS'rr_data/b0040.rr.txt\n'
p489
aS'rr_data/e00536.rr.txt\n'
p490
aS'rr_data/c0021.rr.txt\n'
p491
aS'rr_data/a0097.rr.txt\n'
p492
aS'rr_data/e01995.rr.txt\n'
p493
aS'rr_data/a0256.rr.txt\n'
p494
aS'rr_data/e00925.rr.txt\n'
p495
aS'rr_data/a0191.rr.txt\n'
p496
aS'rr_data/a0343.rr.txt\n'
p497
aS'rr_data/a0190.rr.txt\n'
p498
aS'rr_data/a0394.rr.txt\n'
p499
aS'rr_data/b0221.rr.txt\n'
p500
aS'rr_data/a0259.rr.txt\n'
p501
aS'rr_data/a0346.rr.txt\n'
p502
aS'rr_data/a0002.rr.txt\n'
p503
aS'rr_data/a0167.rr.txt\n'
p504
aS'rr_data/a0377.rr.txt\n'
p505
aS'rr_data/e00457.rr.txt\n'
p506
aS'rr_data/a0245.rr.txt\n'
p507
aS'rr_data/e01732.rr.txt\n'
p508
aS'rr_data/a0324.rr.txt\n'
p509
aS'rr_data/d0042.rr.txt\n'
p510
aS'rr_data/d0038.rr.txt\n'
p511
aS'rr_data/b0468.rr.txt\n'
p512
aS'rr_data/a0164.rr.txt\n'
p513
aS'rr_data/a0046.rr.txt\n'
p514
aS'rr_data/d0026.rr.txt\n'
p515
aS'rr_data/b0409.rr.txt\n'
p516
aS'rr_data/a0156.rr.txt\n'
p517
aS'rr_data/b0176.rr.txt\n'
p518
aS'rr_data/e01766.rr.txt\n'
p519
aS'rr_data/b0224.rr.txt\n'
p520
aS'rr_data/a0163.rr.txt\n'
p521
aS'rr_data/a0258.rr.txt\n'
p522
aS'rr_data/a0112.rr.txt\n'
p523
aS'rr_data/b0397.rr.txt\n'
p524
aS'rr_data/e00059.rr.txt\n'
p525
aS'rr_data/a0054.rr.txt\n'
p526
aS'rr_data/b0422.rr.txt\n'
p527
aS'rr_data/f0083.rr.txt\n'
p528
aS'rr_data/d0002.rr.txt\n'
p529
aS'rr_data/a0092.rr.txt\n'
p530
aS'rr_data/e00917.rr.txt\n'
p531
aS'rr_data/a0013.rr.txt\n'
p532
aS'rr_data/c0004.rr.txt\n'
p533
aS'rr_data/a0317.rr.txt\n'
p534
aS'rr_data/a0174.rr.txt\n'
p535
aS'rr_data/b0086.rr.txt\n'
p536
aS'rr_data/a0182.rr.txt\n'
p537
aS'rr_data/a0176.rr.txt\n'
p538
aS'rr_data/a0119.rr.txt\n'
p539
aS'rr_data/b0054.rr.txt\n'
p540
aS'rr_data/e01791.rr.txt\n'
p541
aS'rr_data/e00140.rr.txt\n'
p542
aS'rr_data/e02097.rr.txt\n'
p543
aS'rr_data/b0284.rr.txt\n'
p544
aS'rr_data/e01016.rr.txt\n'
p545
aS'rr_data/b0041.rr.txt\n'
p546
aS'rr_data/e00135.rr.txt\n'
p547
aS'rr_data/b0341.rr.txt\n'
p548
aS'rr_data/f0067.rr.txt\n'
p549
aS'rr_data/e00731.rr.txt\n'
p550
aS'rr_data/e02126.rr.txt\n'
p551
aS'rr_data/a0307.rr.txt\n'
p552
aS'rr_data/e00087.rr.txt\n'
p553
aS'rr_data/a0143.rr.txt\n'
p554
aS'rr_data/e00114.rr.txt\n'
p555
aS'rr_data/a0122.rr.txt\n'
p556
aS'rr_data/e00847.rr.txt\n'
p557
aS'rr_data/c0013.rr.txt\n'
p558
aS'rr_data/a0336.rr.txt\n'
p559
aS'rr_data/e00266.rr.txt\n'
p560
aS'rr_data/a0391.rr.txt\n'
p561
aS'rr_data/a0098.rr.txt\n'
p562
aS'rr_data/a0303.rr.txt\n'
p563
aS'rr_data/e00921.rr.txt\n'
p564
aS'rr_data/a0288.rr.txt\n'
p565
aS'rr_data/b0385.rr.txt\n'
p566
aS'rr_data/e00191.rr.txt\n'
p567
aS'rr_data/b0369.rr.txt\n'
p568
aS'rr_data/a0065.rr.txt\n'
p569
aS'rr_data/a0023.rr.txt\n'
p570
aS'rr_data/a0372.rr.txt\n'
p571
aS'rr_data/c0014.rr.txt\n'
p572
aS'rr_data/a0366.rr.txt\n'
p573
aS'rr_data/a0103.rr.txt\n'
p574
aS'rr_data/b0137.rr.txt\n'
p575
aS'rr_data/a0116.rr.txt\n'
p576
aS'rr_data/b0232.rr.txt\n'
p577
aS'rr_data/e00967.rr.txt\n'
p578
aS'rr_data/b0081.rr.txt\n'
p579
aS'rr_data/f0047.rr.txt\n'
p580
aS'rr_data/a0107.rr.txt\n'
p581
aS'rr_data/d0010.rr.txt\n'
p582
aS'rr_data/f0045.rr.txt\n'
p583
aS'rr_data/a0061.rr.txt\n'
p584
aS'rr_data/e00523.rr.txt\n'
p585
aS'rr_data/e02074.rr.txt\n'
p586
aS'rr_data/a0003.rr.txt\n'
p587
aS'rr_data/a0263.rr.txt\n'
p588
aS'rr_data/e00841.rr.txt\n'
p589
aS'rr_data/b0155.rr.txt\n'
p590
aS'rr_data/a0314.rr.txt\n'
p591
aS'rr_data/a0206.rr.txt\n'
p592
aS'rr_data/e00929.rr.txt\n'
p593
aS'rr_data/a0295.rr.txt\n'
p594
aS'rr_data/c0029.rr.txt\n'
p595
aS'rr_data/e01115.rr.txt\n'
p596
aS'rr_data/a0233.rr.txt\n'
p597
aS'rr_data/a0134.rr.txt\n'
p598
aS'rr_data/a0203.rr.txt\n'
p599
aS'rr_data/a0216.rr.txt\n'
p600
aS'rr_data/a0316.rr.txt\n'
p601
aS'rr_data/a0379.rr.txt\n'
p602
aS'rr_data/a0131.rr.txt\n'
p603
aS'rr_data/b0096.rr.txt\n'
p604
aS'rr_data/a0221.rr.txt\n'
p605
aS'rr_data/e01256.rr.txt\n'
p606
aS'rr_data/a0242.rr.txt\n'
p607
aS'rr_data/f0056.rr.txt\n'
p608
aS'rr_data/b0242.rr.txt\n'
p609
aS'rr_data/b0267.rr.txt\n'
p610
aS'rr_data/e00539.rr.txt\n'
p611
aS'rr_data/b0262.rr.txt\n'
p612
aS'rr_data/a0239.rr.txt\n'
p613
aS'rr_data/a0354.rr.txt\n'
p614
aS'rr_data/b0253.rr.txt\n'
p615
aS'rr_data/e01367.rr.txt\n'
p616
aS'rr_data/a0135.rr.txt\n'
p617
aS'rr_data/a0096.rr.txt\n'
p618
aS'rr_data/a0248.rr.txt\n'
p619
aS'rr_data/d0040.rr.txt\n'
p620
aS'rr_data/e01383.rr.txt\n'
p621
aS'rr_data/e00526.rr.txt\n'
p622
aS'rr_data/f0035.rr.txt\n'
p623
aS'rr_data/b0197.rr.txt\n'
p624
aS'rr_data/e00670.rr.txt\n'
p625
aS'rr_data/e00435.rr.txt\n'
p626
aS'rr_data/b0335.rr.txt\n'
p627
aS'rr_data/b0238.rr.txt\n'
p628
aS'rr_data/a0015.rr.txt\n'
p629
aS'rr_data/a0004.rr.txt\n'
p630
aS'rr_data/e01502.rr.txt\n'
p631
aS'rr_data/a0318.rr.txt\n'
p632
aS'rr_data/a0396.rr.txt\n'
p633
aS'rr_data/a0380.rr.txt\n'
p634
aS'rr_data/e02085.rr.txt\n'
p635
aS'rr_data/e01929.rr.txt\n'
p636
aS'rr_data/a0363.rr.txt\n'
p637
aS'rr_data/a0234.rr.txt\n'
p638
aS'rr_data/a0376.rr.txt\n'
p639
aS'rr_data/e01917.rr.txt\n'
p640
aS'rr_data/a0169.rr.txt\n'
p641
aS'rr_data/d0028.rr.txt\n'
p642
aS'rr_data/a0247.rr.txt\n'
p643
aS'rr_data/e01307.rr.txt\n'
p644
aS'rr_data/a0367.rr.txt\n'
p645
aS'rr_data/f0007.rr.txt\n'
p646
aS'rr_data/e01867.rr.txt\n'
p647
aS'rr_data/e01665.rr.txt\n'
p648
aS'rr_data/a0148.rr.txt\n'
p649
aS'rr_data/b0474.rr.txt\n'
p650
aS'rr_data/b0408.rr.txt\n'
p651
aS'rr_data/e02137.rr.txt\n'
p652
aS'rr_data/b0022.rr.txt\n'
p653
aS'rr_data/e00373.rr.txt\n'
p654
aS'rr_data/a0082.rr.txt\n'
p655
aS'rr_data/b0349.rr.txt\n'
p656
aS'rr_data/e01697.rr.txt\n'
p657
aS'rr_data/e01848.rr.txt\n'
p658
aS'rr_data/e01855.rr.txt\n'
p659
aS'rr_data/f0090.rr.txt\n'
p660
aS'rr_data/b0413.rr.txt\n'
p661
aS'rr_data/a0362.rr.txt\n'
p662
aS'rr_data/a0400.rr.txt\n'
p663
aS'rr_data/a0052.rr.txt\n'
p664
aS'rr_data/a0158.rr.txt\n'
p665
a.