(lp0
S'rr_data/e00102.rr.txt\n'
p1
aS'rr_data/e00626.rr.txt\n'
p2
aS'rr_data/e00015.rr.txt\n'
p3
aS'rr_data/e01592.rr.txt\n'
p4
aS'rr_data/e01496.rr.txt\n'
p5
aS'rr_data/e00709.rr.txt\n'
p6
aS'rr_data/b0115.rr.txt\n'
p7
aS'rr_data/b0002.rr.txt\n'
p8
aS'rr_data/e01753.rr.txt\n'
p9
aS'rr_data/e01391.rr.txt\n'
p10
aS'rr_data/e01693.rr.txt\n'
p11
aS'rr_data/b0452.rr.txt\n'
p12
aS'rr_data/e00042.rr.txt\n'
p13
aS'rr_data/e01034.rr.txt\n'
p14
aS'rr_data/e01882.rr.txt\n'
p15
aS'rr_data/e01069.rr.txt\n'
p16
aS'rr_data/e00403.rr.txt\n'
p17
aS'rr_data/e00697.rr.txt\n'
p18
aS'rr_data/e01475.rr.txt\n'
p19
aS'rr_data/b0110.rr.txt\n'
p20
aS'rr_data/e01417.rr.txt\n'
p21
aS'rr_data/f0053.rr.txt\n'
p22
aS'rr_data/e00038.rr.txt\n'
p23
aS'rr_data/e00543.rr.txt\n'
p24
aS'rr_data/e00995.rr.txt\n'
p25
aS'rr_data/f0095.rr.txt\n'
p26
aS'rr_data/e01645.rr.txt\n'
p27
aS'rr_data/e02052.rr.txt\n'
p28
aS'rr_data/b0101.rr.txt\n'
p29
aS'rr_data/e01635.rr.txt\n'
p30
aS'rr_data/e01227.rr.txt\n'
p31
aS'rr_data/e01700.rr.txt\n'
p32
aS'rr_data/a0355.rr.txt\n'
p33
aS'rr_data/e00205.rr.txt\n'
p34
aS'rr_data/e00239.rr.txt\n'
p35
aS'rr_data/e01743.rr.txt\n'
p36
aS'rr_data/e00393.rr.txt\n'
p37
aS'rr_data/e00358.rr.txt\n'
p38
aS'rr_data/b0355.rr.txt\n'
p39
aS'rr_data/e01454.rr.txt\n'
p40
aS'rr_data/b0399.rr.txt\n'
p41
aS'rr_data/e00694.rr.txt\n'
p42
aS'rr_data/e01643.rr.txt\n'
p43
aS'rr_data/e01286.rr.txt\n'
p44
aS'rr_data/e01138.rr.txt\n'
p45
aS'rr_data/e00933.rr.txt\n'
p46
aS'rr_data/e00509.rr.txt\n'
p47
aS'rr_data/e01499.rr.txt\n'
p48
aS'rr_data/e01655.rr.txt\n'
p49
aS'rr_data/e00752.rr.txt\n'
p50
aS'rr_data/e01245.rr.txt\n'
p51
aS'rr_data/e01658.rr.txt\n'
p52
aS'rr_data/b0065.rr.txt\n'
p53
aS'rr_data/e01262.rr.txt\n'
p54
aS'rr_data/e00491.rr.txt\n'
p55
aS'rr_data/e01545.rr.txt\n'
p56
aS'rr_data/e01189.rr.txt\n'
p57
aS'rr_data/e00329.rr.txt\n'
p58
aS'rr_data/e00923.rr.txt\n'
p59
aS'rr_data/b0195.rr.txt\n'
p60
aS'rr_data/b0058.rr.txt\n'
p61
aS'rr_data/e01412.rr.txt\n'
p62
aS'rr_data/e01803.rr.txt\n'
p63
aS'rr_data/a0406.rr.txt\n'
p64
aS'rr_data/e01662.rr.txt\n'
p65
aS'rr_data/e01311.rr.txt\n'
p66
aS'rr_data/e00874.rr.txt\n'
p67
aS'rr_data/b0114.rr.txt\n'
p68
aS'rr_data/a0011.rr.txt\n'
p69
aS'rr_data/e01467.rr.txt\n'
p70
aS'rr_data/b0482.rr.txt\n'
p71
aS'rr_data/e00862.rr.txt\n'
p72
aS'rr_data/e01769.rr.txt\n'
p73
aS'rr_data/b0049.rr.txt\n'
p74
aS'rr_data/e00510.rr.txt\n'
p75
aS'rr_data/e00178.rr.txt\n'
p76
aS'rr_data/e00949.rr.txt\n'
p77
aS'rr_data/e01400.rr.txt\n'
p78
aS'rr_data/e02139.rr.txt\n'
p79
aS'rr_data/e00845.rr.txt\n'
p80
aS'rr_data/e00823.rr.txt\n'
p81
aS'rr_data/f0031.rr.txt\n'
p82
aS'rr_data/e01217.rr.txt\n'
p83
aS'rr_data/e00066.rr.txt\n'
p84
aS'rr_data/e00003.rr.txt\n'
p85
aS'rr_data/e01950.rr.txt\n'
p86
aS'rr_data/e01465.rr.txt\n'
p87
aS'rr_data/b0108.rr.txt\n'
p88
aS'rr_data/e01433.rr.txt\n'
p89
aS'rr_data/e01393.rr.txt\n'
p90
aS'rr_data/e01646.rr.txt\n'
p91
aS'rr_data/e00682.rr.txt\n'
p92
aS'rr_data/b0256.rr.txt\n'
p93
aS'rr_data/e00070.rr.txt\n'
p94
aS'rr_data/e01026.rr.txt\n'
p95
aS'rr_data/e01287.rr.txt\n'
p96
aS'rr_data/e01033.rr.txt\n'
p97
aS'rr_data/e01355.rr.txt\n'
p98
aS'rr_data/e00093.rr.txt\n'
p99
aS'rr_data/e00324.rr.txt\n'
p100
aS'rr_data/e01096.rr.txt\n'
p101
aS'rr_data/e01507.rr.txt\n'
p102
aS'rr_data/a0055.rr.txt\n'
p103
aS'rr_data/e00086.rr.txt\n'
p104
aS'rr_data/b0371.rr.txt\n'
p105
aS'rr_data/e00155.rr.txt\n'
p106
aS'rr_data/e00259.rr.txt\n'
p107
aS'rr_data/a0309.rr.txt\n'
p108
aS'rr_data/f0013.rr.txt\n'
p109
aS'rr_data/e01018.rr.txt\n'
p110
aS'rr_data/d0020.rr.txt\n'
p111
aS'rr_data/e00104.rr.txt\n'
p112
aS'rr_data/e01102.rr.txt\n'
p113
aS'rr_data/e01636.rr.txt\n'
p114
aS'rr_data/e00932.rr.txt\n'
p115
aS'rr_data/e01875.rr.txt\n'
p116
aS'rr_data/b0322.rr.txt\n'
p117
aS'rr_data/e01899.rr.txt\n'
p118
aS'rr_data/e00913.rr.txt\n'
p119
aS'rr_data/e01514.rr.txt\n'
p120
aS'rr_data/e00357.rr.txt\n'
p121
aS'rr_data/b0259.rr.txt\n'
p122
aS'rr_data/e02029.rr.txt\n'
p123
aS'rr_data/e01778.rr.txt\n'
p124
aS'rr_data/e01317.rr.txt\n'
p125
aS'rr_data/e01000.rr.txt\n'
p126
aS'rr_data/d0055.rr.txt\n'
p127
aS'rr_data/a0235.rr.txt\n'
p128
aS'rr_data/e01582.rr.txt\n'
p129
aS'rr_data/e01196.rr.txt\n'
p130
aS'rr_data/e00558.rr.txt\n'
p131
aS'rr_data/e01815.rr.txt\n'
p132
aS'rr_data/e01248.rr.txt\n'
p133
aS'rr_data/e01627.rr.txt\n'
p134
aS'rr_data/a0328.rr.txt\n'
p135
aS'rr_data/e00278.rr.txt\n'
p136
aS'rr_data/e01453.rr.txt\n'
p137
aS'rr_data/f0109.rr.txt\n'
p138
aS'rr_data/b0364.rr.txt\n'
p139
aS'rr_data/a0238.rr.txt\n'
p140
aS'rr_data/e00508.rr.txt\n'
p141
aS'rr_data/e00590.rr.txt\n'
p142
aS'rr_data/e01275.rr.txt\n'
p143
aS'rr_data/a0105.rr.txt\n'
p144
aS'rr_data/e01831.rr.txt\n'
p145
aS'rr_data/b0387.rr.txt\n'
p146
aS'rr_data/e01044.rr.txt\n'
p147
aS'rr_data/e01717.rr.txt\n'
p148
aS'rr_data/e02118.rr.txt\n'
p149
aS'rr_data/e00470.rr.txt\n'
p150
aS'rr_data/e00651.rr.txt\n'
p151
aS'rr_data/e00684.rr.txt\n'
p152
aS'rr_data/f0077.rr.txt\n'
p153
aS'rr_data/e01741.rr.txt\n'
p154
aS'rr_data/b0168.rr.txt\n'
p155
aS'rr_data/e00471.rr.txt\n'
p156
aS'rr_data/e00151.rr.txt\n'
p157
aS'rr_data/e00165.rr.txt\n'
p158
aS'rr_data/e00775.rr.txt\n'
p159
aS'rr_data/e00389.rr.txt\n'
p160
aS'rr_data/a0093.rr.txt\n'
p161
aS'rr_data/b0094.rr.txt\n'
p162
aS'rr_data/e00802.rr.txt\n'
p163
aS'rr_data/e00672.rr.txt\n'
p164
aS'rr_data/a0290.rr.txt\n'
p165
aS'rr_data/e01510.rr.txt\n'
p166
aS'rr_data/e00540.rr.txt\n'
p167
aS'rr_data/e01472.rr.txt\n'
p168
aS'rr_data/b0179.rr.txt\n'
p169
aS'rr_data/e00654.rr.txt\n'
p170
aS'rr_data/e01232.rr.txt\n'
p171
aS'rr_data/e00468.rr.txt\n'
p172
aS'rr_data/e01850.rr.txt\n'
p173
aS'rr_data/e00948.rr.txt\n'
p174
aS'rr_data/b0432.rr.txt\n'
p175
aS'rr_data/e00638.rr.txt\n'
p176
aS'rr_data/e00483.rr.txt\n'
p177
aS'rr_data/e01827.rr.txt\n'
p178
aS'rr_data/e00625.rr.txt\n'
p179
aS'rr_data/e00633.rr.txt\n'
p180
aS'rr_data/e00092.rr.txt\n'
p181
aS'rr_data/e01586.rr.txt\n'
p182
aS'rr_data/a0068.rr.txt\n'
p183
aS'rr_data/e01024.rr.txt\n'
p184
aS'rr_data/e00051.rr.txt\n'
p185
aS'rr_data/e01547.rr.txt\n'
p186
aS'rr_data/e00421.rr.txt\n'
p187
aS'rr_data/e00249.rr.txt\n'
p188
aS'rr_data/e00268.rr.txt\n'
p189
aS'rr_data/e01078.rr.txt\n'
p190
aS'rr_data/e01113.rr.txt\n'
p191
aS'rr_data/f0091.rr.txt\n'
p192
aS'rr_data/b0376.rr.txt\n'
p193
aS'rr_data/e01455.rr.txt\n'
p194
aS'rr_data/b0398.rr.txt\n'
p195
aS'rr_data/e01854.rr.txt\n'
p196
aS'rr_data/e02087.rr.txt\n'
p197
aS'rr_data/e00555.rr.txt\n'
p198
aS'rr_data/e01179.rr.txt\n'
p199
aS'rr_data/e01385.rr.txt\n'
p200
aS'rr_data/e01190.rr.txt\n'
p201
aS'rr_data/e01596.rr.txt\n'
p202
aS'rr_data/a0332.rr.txt\n'
p203
aS'rr_data/e01209.rr.txt\n'
p204
aS'rr_data/e01358.rr.txt\n'
p205
aS'rr_data/e00798.rr.txt\n'
p206
aS'rr_data/e00906.rr.txt\n'
p207
aS'rr_data/e00658.rr.txt\n'
p208
aS'rr_data/e01573.rr.txt\n'
p209
aS'rr_data/e01476.rr.txt\n'
p210
aS'rr_data/e01982.rr.txt\n'
p211
aS'rr_data/e00220.rr.txt\n'
p212
aS'rr_data/e00864.rr.txt\n'
p213
aS'rr_data/e01395.rr.txt\n'
p214
aS'rr_data/e01155.rr.txt\n'
p215
aS'rr_data/e01647.rr.txt\n'
p216
aS'rr_data/e00099.rr.txt\n'
p217
aS'rr_data/a0243.rr.txt\n'
p218
aS'rr_data/e01997.rr.txt\n'
p219
aS'rr_data/e00173.rr.txt\n'
p220
aS'rr_data/e00769.rr.txt\n'
p221
aS'rr_data/e02043.rr.txt\n'
p222
aS'rr_data/b0139.rr.txt\n'
p223
aS'rr_data/e02112.rr.txt\n'
p224
aS'rr_data/b0266.rr.txt\n'
p225
aS'rr_data/b0306.rr.txt\n'
p226
aS'rr_data/e01441.rr.txt\n'
p227
aS'rr_data/e00113.rr.txt\n'
p228
aS'rr_data/e00979.rr.txt\n'
p229
aS'rr_data/e02080.rr.txt\n'
p230
aS'rr_data/e01394.rr.txt\n'
p231
aS'rr_data/b0434.rr.txt\n'
p232
aS'rr_data/e01720.rr.txt\n'
p233
aS'rr_data/e01173.rr.txt\n'
p234
aS'rr_data/e00714.rr.txt\n'
p235
aS'rr_data/e00345.rr.txt\n'
p236
aS'rr_data/b0154.rr.txt\n'
p237
aS'rr_data/f0026.rr.txt\n'
p238
aS'rr_data/e02033.rr.txt\n'
p239
aS'rr_data/e00449.rr.txt\n'
p240
aS'rr_data/e00245.rr.txt\n'
p241
aS'rr_data/b0194.rr.txt\n'
p242
aS'rr_data/b0202.rr.txt\n'
p243
aS'rr_data/e01840.rr.txt\n'
p244
aS'rr_data/a0199.rr.txt\n'
p245
aS'rr_data/e02068.rr.txt\n'
p246
aS'rr_data/e00428.rr.txt\n'
p247
aS'rr_data/e01603.rr.txt\n'
p248
aS'rr_data/e01851.rr.txt\n'
p249
aS'rr_data/e02075.rr.txt\n'
p250
aS'rr_data/a0386.rr.txt\n'
p251
aS'rr_data/e00784.rr.txt\n'
p252
aS'rr_data/b0222.rr.txt\n'
p253
aS'rr_data/e01509.rr.txt\n'
p254
aS'rr_data/f0075.rr.txt\n'
p255
aS'rr_data/e01109.rr.txt\n'
p256
aS'rr_data/b0347.rr.txt\n'
p257
aS'rr_data/b0339.rr.txt\n'
p258
aS'rr_data/e00953.rr.txt\n'
p259
aS'rr_data/e01570.rr.txt\n'
p260
aS'rr_data/e00773.rr.txt\n'
p261
aS'rr_data/e00688.rr.txt\n'
p262
aS'rr_data/e00816.rr.txt\n'
p263
aS'rr_data/e01388.rr.txt\n'
p264
aS'rr_data/e01125.rr.txt\n'
p265
aS'rr_data/e00513.rr.txt\n'
p266
aS'rr_data/e00663.rr.txt\n'
p267
aS'rr_data/e01685.rr.txt\n'
p268
aS'rr_data/d0048.rr.txt\n'
p269
aS'rr_data/e01958.rr.txt\n'
p270
aS'rr_data/f0040.rr.txt\n'
p271
aS'rr_data/b0036.rr.txt\n'
p272
aS'rr_data/e00990.rr.txt\n'
p273
aS'rr_data/e00610.rr.txt\n'
p274
aS'rr_data/e01615.rr.txt\n'
p275
aS'rr_data/a0181.rr.txt\n'
p276
aS'rr_data/e01713.rr.txt\n'
p277
aS'rr_data/a0053.rr.txt\n'
p278
aS'rr_data/e01590.rr.txt\n'
p279
aS'rr_data/e00853.rr.txt\n'
p280
aS'rr_data/e01054.rr.txt\n'
p281
aS'rr_data/e00542.rr.txt\n'
p282
aS'rr_data/e01760.rr.txt\n'
p283
aS'rr_data/e01828.rr.txt\n'
p284
aS'rr_data/b0252.rr.txt\n'
p285
aS'rr_data/e00848.rr.txt\n'
p286
aS'rr_data/e01023.rr.txt\n'
p287
aS'rr_data/b0147.rr.txt\n'
p288
aS'rr_data/e00869.rr.txt\n'
p289
aS'rr_data/e02054.rr.txt\n'
p290
aS'rr_data/e01282.rr.txt\n'
p291
aS'rr_data/e02136.rr.txt\n'
p292
aS'rr_data/e00409.rr.txt\n'
p293
aS'rr_data/e01844.rr.txt\n'
p294
aS'rr_data/e00480.rr.txt\n'
p295
aS'rr_data/e00210.rr.txt\n'
p296
aS'rr_data/a0340.rr.txt\n'
p297
aS'rr_data/e01281.rr.txt\n'
p298
aS'rr_data/e00394.rr.txt\n'
p299
aS'rr_data/e00327.rr.txt\n'
p300
aS'rr_data/f0104.rr.txt\n'
p301
aS'rr_data/e00557.rr.txt\n'
p302
aS'rr_data/a0050.rr.txt\n'
p303
aS'rr_data/e00780.rr.txt\n'
p304
aS'rr_data/e00796.rr.txt\n'
p305
aS'rr_data/e01912.rr.txt\n'
p306
aS'rr_data/b0039.rr.txt\n'
p307
aS'rr_data/e01858.rr.txt\n'
p308
aS'rr_data/e01437.rr.txt\n'
p309
aS'rr_data/b0317.rr.txt\n'
p310
aS'rr_data/e00401.rr.txt\n'
p311
aS'rr_data/e01260.rr.txt\n'
p312
aS'rr_data/d0027.rr.txt\n'
p313
aS'rr_data/e02125.rr.txt\n'
p314
aS'rr_data/e00325.rr.txt\n'
p315
aS'rr_data/e00833.rr.txt\n'
p316
aS'rr_data/e02025.rr.txt\n'
p317
aS'rr_data/e01065.rr.txt\n'
p318
aS'rr_data/e00088.rr.txt\n'
p319
aS'rr_data/e00952.rr.txt\n'
p320
aS'rr_data/e00391.rr.txt\n'
p321
aS'rr_data/b0346.rr.txt\n'
p322
aS'rr_data/e00136.rr.txt\n'
p323
aS'rr_data/e01680.rr.txt\n'
p324
aS'rr_data/e00919.rr.txt\n'
p325
aS'rr_data/e00434.rr.txt\n'
p326
aS'rr_data/e00912.rr.txt\n'
p327
aS'rr_data/b0308.rr.txt\n'
p328
aS'rr_data/e00378.rr.txt\n'
p329
aS'rr_data/e00286.rr.txt\n'
p330
aS'rr_data/e00252.rr.txt\n'
p331
aS'rr_data/f0105.rr.txt\n'
p332
aS'rr_data/e01183.rr.txt\n'
p333
aS'rr_data/e00235.rr.txt\n'
p334
aS'rr_data/e01136.rr.txt\n'
p335
aS'rr_data/e00392.rr.txt\n'
p336
aS'rr_data/e01584.rr.txt\n'
p337
aS'rr_data/e00946.rr.txt\n'
p338
aS'rr_data/e00126.rr.txt\n'
p339
aS'rr_data/b0082.rr.txt\n'
p340
aS'rr_data/e00964.rr.txt\n'
p341
aS'rr_data/e00598.rr.txt\n'
p342
aS'rr_data/e00127.rr.txt\n'
p343
aS'rr_data/e01182.rr.txt\n'
p344
aS'rr_data/e01072.rr.txt\n'
p345
aS'rr_data/e01925.rr.txt\n'
p346
aS'rr_data/e00047.rr.txt\n'
p347
aS'rr_data/e00169.rr.txt\n'
p348
aS'rr_data/e00581.rr.txt\n'
p349
aS'rr_data/e00406.rr.txt\n'
p350
aS'rr_data/e00269.rr.txt\n'
p351
aS'rr_data/e02012.rr.txt\n'
p352
aS'rr_data/e01701.rr.txt\n'
p353
aS'rr_data/e00380.rr.txt\n'
p354
aS'rr_data/e01751.rr.txt\n'
p355
aS'rr_data/b0270.rr.txt\n'
p356
aS'rr_data/e00736.rr.txt\n'
p357
aS'rr_data/a0085.rr.txt\n'
p358
aS'rr_data/e00433.rr.txt\n'
p359
aS'rr_data/b0469.rr.txt\n'
p360
aS'rr_data/e01692.rr.txt\n'
p361
aS'rr_data/e01943.rr.txt\n'
p362
aS'rr_data/e01401.rr.txt\n'
p363
aS'rr_data/b0275.rr.txt\n'
p364
aS'rr_data/e01141.rr.txt\n'
p365
aS'rr_data/e01009.rr.txt\n'
p366
aS'rr_data/e01432.rr.txt\n'
p367
aS'rr_data/e01924.rr.txt\n'
p368
aS'rr_data/e01569.rr.txt\n'
p369
aS'rr_data/e00706.rr.txt\n'
p370
aS'rr_data/a0189.rr.txt\n'
p371
aS'rr_data/e00149.rr.txt\n'
p372
aS'rr_data/e01304.rr.txt\n'
p373
aS'rr_data/e00705.rr.txt\n'
p374
aS'rr_data/e00631.rr.txt\n'
p375
aS'rr_data/a0264.rr.txt\n'
p376
aS'rr_data/e01966.rr.txt\n'
p377
aS'rr_data/e00762.rr.txt\n'
p378
aS'rr_data/e01768.rr.txt\n'
p379
aS'rr_data/b0470.rr.txt\n'
p380
aS'rr_data/e01533.rr.txt\n'
p381
aS'rr_data/b0236.rr.txt\n'
p382
aS'rr_data/e00139.rr.txt\n'
p383
aS'rr_data/e00317.rr.txt\n'
p384
aS'rr_data/e01838.rr.txt\n'
p385
aS'rr_data/b0449.rr.txt\n'
p386
aS'rr_data/e01968.rr.txt\n'
p387
aS'rr_data/b0487.rr.txt\n'
p388
aS'rr_data/e00290.rr.txt\n'
p389
aS'rr_data/b0368.rr.txt\n'
p390
aS'rr_data/e01066.rr.txt\n'
p391
aS'rr_data/a0266.rr.txt\n'
p392
aS'rr_data/b0138.rr.txt\n'
p393
aS'rr_data/e01733.rr.txt\n'
p394
aS'rr_data/e01082.rr.txt\n'
p395
aS'rr_data/e01970.rr.txt\n'
p396
aS'rr_data/b0210.rr.txt\n'
p397
aS'rr_data/e01300.rr.txt\n'
p398
aS'rr_data/e00742.rr.txt\n'
p399
aS'rr_data/e02022.rr.txt\n'
p400
aS'rr_data/b0092.rr.txt\n'
p401
aS'rr_data/e01829.rr.txt\n'
p402
aS'rr_data/e01137.rr.txt\n'
p403
aS'rr_data/e01739.rr.txt\n'
p404
aS'rr_data/e01043.rr.txt\n'
p405
aS'rr_data/b0451.rr.txt\n'
p406
aS'rr_data/e01470.rr.txt\n'
p407
aS'rr_data/b0357.rr.txt\n'
p408
aS'rr_data/e01767.rr.txt\n'
p409
aS'rr_data/e01896.rr.txt\n'
p410
aS'rr_data/e00132.rr.txt\n'
p411
aS'rr_data/e01696.rr.txt\n'
p412
aS'rr_data/e00080.rr.txt\n'
p413
aS'rr_data/e01405.rr.txt\n'
p414
aS'rr_data/b0245.rr.txt\n'
p415
aS'rr_data/e01562.rr.txt\n'
p416
aS'rr_data/e01708.rr.txt\n'
p417
aS'rr_data/e00353.rr.txt\n'
p418
aS'rr_data/e00057.rr.txt\n'
p419
aS'rr_data/e00459.rr.txt\n'
p420
aS'rr_data/b0006.rr.txt\n'
p421
aS'rr_data/e01100.rr.txt\n'
p422
aS'rr_data/e00940.rr.txt\n'
p423
aS'rr_data/e01813.rr.txt\n'
p424
aS'rr_data/d0024.rr.txt\n'
p425
aS'rr_data/e01334.rr.txt\n'
p426
aS'rr_data/e00901.rr.txt\n'
p427
aS'rr_data/e00472.rr.txt\n'
p428
aS'rr_data/b0216.rr.txt\n'
p429
aS'rr_data/e01560.rr.txt\n'
p430
aS'rr_data/b0247.rr.txt\n'
p431
aS'rr_data/a0171.rr.txt\n'
p432
aS'rr_data/b0294.rr.txt\n'
p433
aS'rr_data/e01048.rr.txt\n'
p434
aS'rr_data/f0061.rr.txt\n'
p435
aS'rr_data/e00971.rr.txt\n'
p436
aS'rr_data/e01902.rr.txt\n'
p437
aS'rr_data/e00069.rr.txt\n'
p438
aS'rr_data/f0092.rr.txt\n'
p439
aS'rr_data/e00573.rr.txt\n'
p440
aS'rr_data/e00496.rr.txt\n'
p441
aS'rr_data/e00927.rr.txt\n'
p442
aS'rr_data/e00898.rr.txt\n'
p443
aS'rr_data/b0062.rr.txt\n'
p444
aS'rr_data/e00462.rr.txt\n'
p445
aS'rr_data/f0025.rr.txt\n'
p446
aS'rr_data/e01715.rr.txt\n'
p447
aS'rr_data/e00341.rr.txt\n'
p448
aS'rr_data/e00076.rr.txt\n'
p449
aS'rr_data/e00276.rr.txt\n'
p450
aS'rr_data/b0042.rr.txt\n'
p451
aS'rr_data/b0199.rr.txt\n'
p452
aS'rr_data/e01045.rr.txt\n'
p453
aS'rr_data/e00041.rr.txt\n'
p454
aS'rr_data/e01641.rr.txt\n'
p455
aS'rr_data/e01247.rr.txt\n'
p456
aS'rr_data/b0359.rr.txt\n'
p457
aS'rr_data/f0037.rr.txt\n'
p458
aS'rr_data/e01996.rr.txt\n'
p459
aS'rr_data/e01288.rr.txt\n'
p460
aS'rr_data/e01752.rr.txt\n'
p461
aS'rr_data/e01384.rr.txt\n'
p462
aS'rr_data/e00230.rr.txt\n'
p463
aS'rr_data/e01834.rr.txt\n'
p464
aS'rr_data/e01159.rr.txt\n'
p465
aS'rr_data/e02122.rr.txt\n'
p466
aS'rr_data/e01083.rr.txt\n'
p467
aS'rr_data/e00498.rr.txt\n'
p468
aS'rr_data/e00079.rr.txt\n'
p469
aS'rr_data/b0340.rr.txt\n'
p470
aS'rr_data/e01546.rr.txt\n'
p471
aS'rr_data/e01129.rr.txt\n'
p472
aS'rr_data/e00689.rr.txt\n'
p473
aS'rr_data/e00282.rr.txt\n'
p474
aS'rr_data/a0401.rr.txt\n'
p475
aS'rr_data/e01804.rr.txt\n'
p476
aS'rr_data/e00846.rr.txt\n'
p477
aS'rr_data/e00727.rr.txt\n'
p478
aS'rr_data/e01161.rr.txt\n'
p479
aS'rr_data/e01745.rr.txt\n'
p480
aS'rr_data/e00985.rr.txt\n'
p481
aS'rr_data/e01599.rr.txt\n'
p482
aS'rr_data/e01234.rr.txt\n'
p483
aS'rr_data/b0336.rr.txt\n'
p484
aS'rr_data/b0218.rr.txt\n'
p485
aS'rr_data/e00994.rr.txt\n'
p486
aS'rr_data/e01243.rr.txt\n'
p487
aS'rr_data/e01821.rr.txt\n'
p488
aS'rr_data/e01800.rr.txt\n'
p489
aS'rr_data/b0423.rr.txt\n'
p490
aS'rr_data/a0195.rr.txt\n'
p491
aS'rr_data/e01352.rr.txt\n'
p492
aS'rr_data/e02015.rr.txt\n'
p493
aS'rr_data/e00368.rr.txt\n'
p494
aS'rr_data/b0183.rr.txt\n'
p495
aS'rr_data/e00755.rr.txt\n'
p496
aS'rr_data/e00174.rr.txt\n'
p497
aS'rr_data/e00825.rr.txt\n'
p498
aS'rr_data/e00754.rr.txt\n'
p499
aS'rr_data/e01500.rr.txt\n'
p500
aS'rr_data/e02132.rr.txt\n'
p501
aS'rr_data/e00072.rr.txt\n'
p502
aS'rr_data/e00060.rr.txt\n'
p503
aS'rr_data/e02036.rr.txt\n'
p504
aS'rr_data/e00828.rr.txt\n'
p505
aS'rr_data/f0111.rr.txt\n'
p506
aS'rr_data/b0103.rr.txt\n'
p507
aS'rr_data/a0329.rr.txt\n'
p508
aS'rr_data/e00279.rr.txt\n'
p509
aS'rr_data/e00981.rr.txt\n'
p510
aS'rr_data/e00741.rr.txt\n'
p511
aS'rr_data/e01428.rr.txt\n'
p512
aS'rr_data/e01192.rr.txt\n'
p513
aS'rr_data/e01575.rr.txt\n'
p514
aS'rr_data/e00575.rr.txt\n'
p515
aS'rr_data/e01505.rr.txt\n'
p516
aS'rr_data/e00367.rr.txt\n'
p517
aS'rr_data/e00171.rr.txt\n'
p518
aS'rr_data/a0229.rr.txt\n'
p519
aS'rr_data/e01557.rr.txt\n'
p520
aS'rr_data/e00362.rr.txt\n'
p521
aS'rr_data/e01310.rr.txt\n'
p522
aS'rr_data/b0350.rr.txt\n'
p523
aS'rr_data/e01014.rr.txt\n'
p524
aS'rr_data/e00156.rr.txt\n'
p525
aS'rr_data/e01031.rr.txt\n'
p526
aS'rr_data/e01817.rr.txt\n'
p527
aS'rr_data/e00026.rr.txt\n'
p528
aS'rr_data/e00560.rr.txt\n'
p529
aS'rr_data/e00910.rr.txt\n'
p530
aS'rr_data/a0165.rr.txt\n'
p531
aS'rr_data/e00095.rr.txt\n'
p532
aS'rr_data/e01730.rr.txt\n'
p533
aS'rr_data/e00172.rr.txt\n'
p534
aS'rr_data/e01396.rr.txt\n'
p535
aS'rr_data/e01079.rr.txt\n'
p536
aS'rr_data/e01935.rr.txt\n'
p537
aS'rr_data/e00728.rr.txt\n'
p538
aS'rr_data/e01198.rr.txt\n'
p539
aS'rr_data/e01973.rr.txt\n'
p540
aS'rr_data/e01610.rr.txt\n'
p541
aS'rr_data/a0298.rr.txt\n'
p542
aS'rr_data/e00701.rr.txt\n'
p543
aS'rr_data/e01532.rr.txt\n'
p544
aS'rr_data/b0217.rr.txt\n'
p545
aS'rr_data/b0237.rr.txt\n'
p546
aS'rr_data/e01279.rr.txt\n'
p547
aS'rr_data/e00160.rr.txt\n'
p548
aS'rr_data/e01131.rr.txt\n'
p549
aS'rr_data/b0010.rr.txt\n'
p550
aS'rr_data/e00004.rr.txt\n'
p551
aS'rr_data/e01940.rr.txt\n'
p552
aS'rr_data/b0311.rr.txt\n'
p553
aS'rr_data/e00878.rr.txt\n'
p554
aS'rr_data/e01035.rr.txt\n'
p555
aS'rr_data/e00606.rr.txt\n'
p556
aS'rr_data/b0015.rr.txt\n'
p557
aS'rr_data/e00843.rr.txt\n'
p558
aS'rr_data/e01994.rr.txt\n'
p559
aS'rr_data/e00984.rr.txt\n'
p560
aS'rr_data/e01515.rr.txt\n'
p561
aS'rr_data/b0258.rr.txt\n'
p562
aS'rr_data/b0141.rr.txt\n'
p563
aS'rr_data/e01172.rr.txt\n'
p564
aS'rr_data/e01670.rr.txt\n'
p565
aS'rr_data/e01628.rr.txt\n'
p566
aS'rr_data/b0332.rr.txt\n'
p567
aS'rr_data/e00366.rr.txt\n'
p568
aS'rr_data/e00374.rr.txt\n'
p569
aS'rr_data/e01877.rr.txt\n'
p570
aS'rr_data/e00524.rr.txt\n'
p571
aS'rr_data/e00502.rr.txt\n'
p572
aS'rr_data/e01108.rr.txt\n'
p573
aS'rr_data/a0196.rr.txt\n'
p574
aS'rr_data/e00851.rr.txt\n'
p575
aS'rr_data/e01436.rr.txt\n'
p576
aS'rr_data/b0056.rr.txt\n'
p577
aS'rr_data/b0169.rr.txt\n'
p578
aS'rr_data/e00595.rr.txt\n'
p579
aS'rr_data/b0445.rr.txt\n'
p580
aS'rr_data/b0343.rr.txt\n'
p581
aS'rr_data/b0227.rr.txt\n'
p582
aS'rr_data/e00758.rr.txt\n'
p583
aS'rr_data/f0004.rr.txt\n'
p584
aS'rr_data/e00030.rr.txt\n'
p585
aS'rr_data/e00376.rr.txt\n'
p586
aS'rr_data/a0009.rr.txt\n'
p587
aS'rr_data/b0070.rr.txt\n'
p588
aS'rr_data/e01980.rr.txt\n'
p589
aS'rr_data/e00208.rr.txt\n'
p590
aS'rr_data/e00218.rr.txt\n'
p591
aS'rr_data/b0090.rr.txt\n'
p592
aS'rr_data/e01690.rr.txt\n'
p593
aS'rr_data/e00819.rr.txt\n'
p594
aS'rr_data/e01107.rr.txt\n'
p595
aS'rr_data/e01214.rr.txt\n'
p596
aS'rr_data/e01555.rr.txt\n'
p597
aS'rr_data/e00978.rr.txt\n'
p598
aS'rr_data/e01543.rr.txt\n'
p599
aS'rr_data/e01519.rr.txt\n'
p600
aS'rr_data/b0254.rr.txt\n'
p601
aS'rr_data/b0025.rr.txt\n'
p602
aS'rr_data/b0011.rr.txt\n'
p603
aS'rr_data/e01168.rr.txt\n'
p604
aS'rr_data/e01073.rr.txt\n'
p605
aS'rr_data/e00941.rr.txt\n'
p606
aS'rr_data/b0404.rr.txt\n'
p607
aS'rr_data/e01681.rr.txt\n'
p608
aS'rr_data/e00637.rr.txt\n'
p609
aS'rr_data/c0016.rr.txt\n'
p610
aS'rr_data/e01273.rr.txt\n'
p611
aS'rr_data/e01458.rr.txt\n'
p612
aS'rr_data/e00108.rr.txt\n'
p613
aS'rr_data/e00207.rr.txt\n'
p614
aS'rr_data/e01886.rr.txt\n'
p615
aS'rr_data/e00145.rr.txt\n'
p616
aS'rr_data/e00124.rr.txt\n'
p617
aS'rr_data/b0076.rr.txt\n'
p618
aS'rr_data/b0027.rr.txt\n'
p619
aS'rr_data/e00958.rr.txt\n'
p620
aS'rr_data/a0129.rr.txt\n'
p621
aS'rr_data/e00554.rr.txt\n'
p622
aS'rr_data/a0311.rr.txt\n'
p623
aS'rr_data/e00241.rr.txt\n'
p624
aS'rr_data/e01296.rr.txt\n'
p625
aS'rr_data/e01706.rr.txt\n'
p626
aS'rr_data/a0088.rr.txt\n'
p627
aS'rr_data/e01318.rr.txt\n'
p628
aS'rr_data/b0119.rr.txt\n'
p629
aS'rr_data/e01338.rr.txt\n'
p630
aS'rr_data/e00609.rr.txt\n'
p631
aS'rr_data/e00702.rr.txt\n'
p632
aS'rr_data/e01526.rr.txt\n'
p633
aS'rr_data/e01370.rr.txt\n'
p634
aS'rr_data/e00427.rr.txt\n'
p635
aS'rr_data/e00685.rr.txt\n'
p636
aS'rr_data/e00442.rr.txt\n'
p637
aS'rr_data/e01900.rr.txt\n'
p638
aS'rr_data/e00009.rr.txt\n'
p639
aS'rr_data/e00130.rr.txt\n'
p640
aS'rr_data/b0433.rr.txt\n'
p641
aS'rr_data/e01450.rr.txt\n'
p642
aS'rr_data/e01464.rr.txt\n'
p643
aS'rr_data/b0109.rr.txt\n'
p644
aS'rr_data/e00426.rr.txt\n'
p645
aS'rr_data/b0438.rr.txt\n'
p646
aS'rr_data/b0200.rr.txt\n'
p647
aS'rr_data/b0095.rr.txt\n'
p648
aS'rr_data/e02013.rr.txt\n'
p649
aS'rr_data/f0098.rr.txt\n'
p650
aS'rr_data/e00827.rr.txt\n'
p651
aS'rr_data/e00616.rr.txt\n'
p652
aS'rr_data/e00466.rr.txt\n'
p653
aS'rr_data/e01981.rr.txt\n'
p654
aS'rr_data/e01937.rr.txt\n'
p655
aS'rr_data/e00049.rr.txt\n'
p656
aS'rr_data/b0181.rr.txt\n'
p657
aS'rr_data/e00621.rr.txt\n'
p658
aS'rr_data/e01171.rr.txt\n'
p659
aS'rr_data/e00765.rr.txt\n'
p660
aS'rr_data/e02089.rr.txt\n'
p661
aS'rr_data/e00738.rr.txt\n'
p662
aS'rr_data/b0300.rr.txt\n'
p663
aS'rr_data/d0005.rr.txt\n'
p664
aS'rr_data/d0031.rr.txt\n'
p665
aS'rr_data/e01132.rr.txt\n'
p666
aS'rr_data/e00859.rr.txt\n'
p667
aS'rr_data/e01411.rr.txt\n'
p668
aS'rr_data/e00090.rr.txt\n'
p669
aS'rr_data/b0116.rr.txt\n'
p670
aS'rr_data/e01594.rr.txt\n'
p671
aS'rr_data/e01028.rr.txt\n'
p672
aS'rr_data/f0011.rr.txt\n'
p673
aS'rr_data/e00203.rr.txt\n'
p674
aS'rr_data/a0353.rr.txt\n'
p675
aS'rr_data/e00760.rr.txt\n'
p676
aS'rr_data/b0405.rr.txt\n'
p677
aS'rr_data/e00011.rr.txt\n'
p678
aS'rr_data/e01064.rr.txt\n'
p679
aS'rr_data/e02055.rr.txt\n'
p680
aS'rr_data/e01090.rr.txt\n'
p681
aS'rr_data/e01408.rr.txt\n'
p682
aS'rr_data/e01423.rr.txt\n'
p683
aS'rr_data/b0196.rr.txt\n'
p684
aS'rr_data/e00484.rr.txt\n'
p685
aS'rr_data/b0078.rr.txt\n'
p686
aS'rr_data/e00799.rr.txt\n'
p687
aS'rr_data/c0007.rr.txt\n'
p688
aS'rr_data/a0385.rr.txt\n'
p689
aS'rr_data/e01175.rr.txt\n'
p690
aS'rr_data/e01238.rr.txt\n'
p691
aS'rr_data/e01905.rr.txt\n'
p692
aS'rr_data/b0283.rr.txt\n'
p693
aS'rr_data/e02023.rr.txt\n'
p694
aS'rr_data/b0264.rr.txt\n'
p695
aS'rr_data/e01653.rr.txt\n'
p696
aS'rr_data/e00763.rr.txt\n'
p697
aS'rr_data/e00188.rr.txt\n'
p698
aS'rr_data/e00535.rr.txt\n'
p699
aS'rr_data/e01865.rr.txt\n'
p700
aS'rr_data/e00534.rr.txt\n'
p701
aS'rr_data/e00612.rr.txt\n'
p702
aS'rr_data/e00600.rr.txt\n'
p703
aS'rr_data/e01774.rr.txt\n'
p704
aS'rr_data/e01041.rr.txt\n'
p705
aS'rr_data/e01067.rr.txt\n'
p706
aS'rr_data/e00951.rr.txt\n'
p707
aS'rr_data/e01058.rr.txt\n'
p708
aS'rr_data/e00962.rr.txt\n'
p709
aS'rr_data/e00793.rr.txt\n'
p710
aS'rr_data/b0084.rr.txt\n'
p711
aS'rr_data/b0393.rr.txt\n'
p712
aS'rr_data/e00187.rr.txt\n'
p713
aS'rr_data/e01415.rr.txt\n'
p714
aS'rr_data/b0112.rr.txt\n'
p715
aS'rr_data/e00624.rr.txt\n'
p716
aS'rr_data/e01852.rr.txt\n'
p717
aS'rr_data/c0003.rr.txt\n'
p718
aS'rr_data/e00339.rr.txt\n'
p719
aS'rr_data/b0360.rr.txt\n'
p720
aS'rr_data/e01012.rr.txt\n'
p721
aS'rr_data/b0396.rr.txt\n'
p722
aS'rr_data/e00182.rr.txt\n'
p723
aS'rr_data/b0288.rr.txt\n'
p724
aS'rr_data/b0375.rr.txt\n'
p725
aS'rr_data/e01613.rr.txt\n'
p726
aS'rr_data/e01609.rr.txt\n'
p727
aS'rr_data/e01251.rr.txt\n'
p728
aS'rr_data/e00803.rr.txt\n'
p729
aS'rr_data/e01301.rr.txt\n'
p730
aS'rr_data/e00646.rr.txt\n'
p731
aS'rr_data/e00692.rr.txt\n'
p732
aS'rr_data/e00154.rr.txt\n'
p733
aS'rr_data/a0127.rr.txt\n'
p734
aS'rr_data/a0153.rr.txt\n'
p735
aS'rr_data/b0249.rr.txt\n'
p736
aS'rr_data/e00255.rr.txt\n'
p737
aS'rr_data/d0013.rr.txt\n'
p738
aS'rr_data/e00458.rr.txt\n'
p739
aS'rr_data/a0140.rr.txt\n'
p740
aS'rr_data/e00548.rr.txt\n'
p741
aS'rr_data/e02027.rr.txt\n'
p742
aS'rr_data/b0466.rr.txt\n'
p743
aS'rr_data/e01552.rr.txt\n'
p744
aS'rr_data/e00356.rr.txt\n'
p745
aS'rr_data/a0285.rr.txt\n'
p746
aS'rr_data/e01792.rr.txt\n'
p747
aS'rr_data/a0125.rr.txt\n'
p748
aS'rr_data/e01489.rr.txt\n'
p749
aS'rr_data/e01914.rr.txt\n'
p750
aS'rr_data/e01619.rr.txt\n'
p751
aS'rr_data/e00664.rr.txt\n'
p752
aS'rr_data/e01716.rr.txt\n'
p753
aS'rr_data/b0417.rr.txt\n'
p754
aS'rr_data/b0338.rr.txt\n'
p755
aS'rr_data/f0016.rr.txt\n'
p756
aS'rr_data/e01652.rr.txt\n'
p757
aS'rr_data/e01255.rr.txt\n'
p758
aS'rr_data/e00909.rr.txt\n'
p759
aS'rr_data/b0313.rr.txt\n'
p760
aS'rr_data/f0078.rr.txt\n'
p761
aS'rr_data/e00439.rr.txt\n'
p762
aS'rr_data/e01513.rr.txt\n'
p763
aS'rr_data/b0472.rr.txt\n'
p764
aS'rr_data/e00110.rr.txt\n'
p765
aS'rr_data/b0038.rr.txt\n'
p766
aS'rr_data/e00347.rr.txt\n'
p767
aS'rr_data/e00499.rr.txt\n'
p768
aS'rr_data/e00019.rr.txt\n'
p769
aS'rr_data/f0087.rr.txt\n'
p770
aS'rr_data/b0192.rr.txt\n'
p771
aS'rr_data/b0380.rr.txt\n'
p772
aS'rr_data/b0392.rr.txt\n'
p773
aS'rr_data/e00186.rr.txt\n'
p774
aS'rr_data/e00194.rr.txt\n'
p775
aS'rr_data/e00234.rr.txt\n'
p776
aS'rr_data/e01725.rr.txt\n'
p777
aS'rr_data/e01564.rr.txt\n'
p778
aS'rr_data/e00916.rr.txt\n'
p779
aS'rr_data/e00734.rr.txt\n'
p780
aS'rr_data/e02120.rr.txt\n'
p781
aS'rr_data/b0089.rr.txt\n'
p782
aS'rr_data/e00809.rr.txt\n'
p783
aS'rr_data/e01223.rr.txt\n'
p784
aS'rr_data/e02134.rr.txt\n'
p785
aS'rr_data/b0047.rr.txt\n'
p786
aS'rr_data/e00538.rr.txt\n'
p787
aS'rr_data/e00650.rr.txt\n'
p788
aS'rr_data/e00844.rr.txt\n'
p789
aS'rr_data/e00757.rr.txt\n'
p790
aS'rr_data/e00679.rr.txt\n'
p791
aS'rr_data/e00196.rr.txt\n'
p792
aS'rr_data/b0382.rr.txt\n'
p793
aS'rr_data/f0059.rr.txt\n'
p794
aS'rr_data/b0460.rr.txt\n'
p795
aS'rr_data/e01759.rr.txt\n'
p796
aS'rr_data/b0373.rr.txt\n'
p797
aS'rr_data/e00464.rr.txt\n'
p798
aS'rr_data/b0231.rr.txt\n'
p799
aS'rr_data/e01534.rr.txt\n'
p800
aS'rr_data/e01521.rr.txt\n'
p801
aS'rr_data/e01939.rr.txt\n'
p802
aS'rr_data/e01151.rr.txt\n'
p803
aS'rr_data/e00326.rr.txt\n'
p804
aS'rr_data/e00885.rr.txt\n'
p805
aS'rr_data/b0091.rr.txt\n'
p806
aS'rr_data/e00721.rr.txt\n'
p807
aS'rr_data/e02107.rr.txt\n'
p808
aS'rr_data/e00055.rr.txt\n'
p809
aS'rr_data/e01126.rr.txt\n'
p810
aS'rr_data/e00546.rr.txt\n'
p811
aS'rr_data/e00730.rr.txt\n'
p812
aS'rr_data/e02130.rr.txt\n'
p813
aS'rr_data/e01811.rr.txt\n'
p814
aS'rr_data/b0316.rr.txt\n'
p815
aS'rr_data/b0034.rr.txt\n'
p816
aS'rr_data/e00119.rr.txt\n'
p817
aS'rr_data/b0107.rr.txt\n'
p818
aS'rr_data/e01880.rr.txt\n'
p819
aS'rr_data/e02056.rr.txt\n'
p820
aS'rr_data/e00430.rr.txt\n'
p821
aS'rr_data/e01920.rr.txt\n'
p822
aS'rr_data/e00715.rr.txt\n'
p823
aS'rr_data/e01302.rr.txt\n'
p824
aS'rr_data/e01185.rr.txt\n'
p825
aS'rr_data/e00893.rr.txt\n'
p826
aS'rr_data/e01839.rr.txt\n'
p827
aS'rr_data/e00918.rr.txt\n'
p828
aS'rr_data/b0378.rr.txt\n'
p829
aS'rr_data/e01963.rr.txt\n'
p830
aS'rr_data/e01898.rr.txt\n'
p831
aS'rr_data/e00740.rr.txt\n'
p832
aS'rr_data/e00219.rr.txt\n'
p833
aS'rr_data/e00116.rr.txt\n'
p834
aS'rr_data/e00577.rr.txt\n'
p835
aS'rr_data/b0403.rr.txt\n'
p836
aS'rr_data/b0329.rr.txt\n'
p837
aS'rr_data/a0108.rr.txt\n'
p838
aS'rr_data/e01666.rr.txt\n'
p839
aS'rr_data/e01156.rr.txt\n'
p840
aS'rr_data/e02071.rr.txt\n'
p841
aS'rr_data/e01426.rr.txt\n'
p842
aS'rr_data/b0479.rr.txt\n'
p843
aS'rr_data/e01626.rr.txt\n'
p844
aS'rr_data/e01901.rr.txt\n'
p845
aS'rr_data/e00669.rr.txt\n'
p846
aS'rr_data/e01955.rr.txt\n'
p847
aS'rr_data/b0453.rr.txt\n'
p848
aS'rr_data/b0293.rr.txt\n'
p849
aS'rr_data/e01632.rr.txt\n'
p850
aS'rr_data/b0298.rr.txt\n'
p851
aS'rr_data/e01306.rr.txt\n'
p852
aS'rr_data/b0060.rr.txt\n'
p853
aS'rr_data/e00494.rr.txt\n'
p854
aS'rr_data/f0010.rr.txt\n'
p855
aS'rr_data/e00134.rr.txt\n'
p856
aS'rr_data/e00315.rr.txt\n'
p857
aS'rr_data/e00629.rr.txt\n'
p858
aS'rr_data/e00587.rr.txt\n'
p859
aS'rr_data/e01548.rr.txt\n'
p860
aS'rr_data/e00505.rr.txt\n'
p861
aS'rr_data/f0023.rr.txt\n'
p862
aS'rr_data/b0215.rr.txt\n'
p863
aS'rr_data/e01099.rr.txt\n'
p864
aS'rr_data/d0047.rr.txt\n'
p865
aS'rr_data/e02111.rr.txt\n'
p866
aS'rr_data/e02051.rr.txt\n'
p867
aS'rr_data/e00973.rr.txt\n'
p868
aS'rr_data/e00907.rr.txt\n'
p869
aS'rr_data/e00888.rr.txt\n'
p870
aS'rr_data/e01740.rr.txt\n'
p871
aS'rr_data/e00896.rr.txt\n'
p872
aS'rr_data/e01037.rr.txt\n'
p873
aS'rr_data/e01120.rr.txt\n'
p874
aS'rr_data/e00320.rr.txt\n'
p875
aS'rr_data/e00262.rr.txt\n'
p876
aS'rr_data/e00008.rr.txt\n'
p877
aS'rr_data/e01849.rr.txt\n'
p878
aS'rr_data/e00776.rr.txt\n'
p879
aS'rr_data/e00500.rr.txt\n'
p880
aS'rr_data/e00671.rr.txt\n'
p881
aS'rr_data/f0081.rr.txt\n'
p882
aS'rr_data/e02119.rr.txt\n'
p883
aS'rr_data/e02049.rr.txt\n'
p884
aS'rr_data/a0337.rr.txt\n'
p885
aS'rr_data/e00267.rr.txt\n'
p886
aS'rr_data/e00193.rr.txt\n'
p887
aS'rr_data/e01075.rr.txt\n'
p888
aS'rr_data/b0475.rr.txt\n'
p889
aS'rr_data/e01859.rr.txt\n'
p890
aS'rr_data/e00408.rr.txt\n'
p891
aS'rr_data/e01042.rr.txt\n'
p892
aS'rr_data/e00075.rr.txt\n'
p893
aS'rr_data/a0136.rr.txt\n'
p894
aS'rr_data/e00005.rr.txt\n'
p895
aS'rr_data/e00417.rr.txt\n'
p896
aS'rr_data/e01208.rr.txt\n'
p897
aS'rr_data/f0080.rr.txt\n'
p898
aS'rr_data/e00785.rr.txt\n'
p899
aS'rr_data/b0004.rr.txt\n'
p900
aS'rr_data/e00503.rr.txt\n'
p901
aS'rr_data/a0038.rr.txt\n'
p902
aS'rr_data/e00224.rr.txt\n'
p903
aS'rr_data/f0065.rr.txt\n'
p904
aS'rr_data/e00168.rr.txt\n'
p905
aS'rr_data/e01221.rr.txt\n'
p906
aS'rr_data/c0022.rr.txt\n'
p907
aS'rr_data/e02002.rr.txt\n'
p908
aS'rr_data/e01030.rr.txt\n'
p909
aS'rr_data/f0070.rr.txt\n'
p910
aS'rr_data/e02117.rr.txt\n'
p911
aS'rr_data/e00815.rr.txt\n'
p912
aS'rr_data/e00065.rr.txt\n'
p913
aS'rr_data/e01654.rr.txt\n'
p914
aS'rr_data/b0133.rr.txt\n'
p915
aS'rr_data/f0058.rr.txt\n'
p916
aS'rr_data/f0086.rr.txt\n'
p917
aS'rr_data/e00068.rr.txt\n'
p918
aS'rr_data/f0017.rr.txt\n'
p919
aS'rr_data/e01648.rr.txt\n'
p920
aS'rr_data/e00628.rr.txt\n'
p921
aS'rr_data/e02084.rr.txt\n'
p922
aS'rr_data/e00052.rr.txt\n'
p923
aS'rr_data/e00293.rr.txt\n'
p924
aS'rr_data/b0019.rr.txt\n'
p925
aS'rr_data/e01163.rr.txt\n'
p926
aS'rr_data/e00965.rr.txt\n'
p927
aS'rr_data/b0206.rr.txt\n'
p928
aS'rr_data/e01201.rr.txt\n'
p929
aS'rr_data/e00578.rr.txt\n'
p930
aS'rr_data/e01095.rr.txt\n'
p931
aS'rr_data/b0457.rr.txt\n'
p932
aS'rr_data/e00263.rr.txt\n'
p933
aS'rr_data/e00217.rr.txt\n'
p934
aS'rr_data/b0029.rr.txt\n'
p935
aS'rr_data/e00567.rr.txt\n'
p936
aS'rr_data/e00983.rr.txt\n'
p937
aS'rr_data/e01049.rr.txt\n'
p938
aS'rr_data/e01088.rr.txt\n'
p939
aS'rr_data/e00372.rr.txt\n'
p940
aS'rr_data/e02090.rr.txt\n'
p941
aS'rr_data/e00270.rr.txt\n'
p942
aS'rr_data/e01029.rr.txt\n'
p943
aS'rr_data/b0175.rr.txt\n'
p944
aS'rr_data/e01271.rr.txt\n'
p945
aS'rr_data/e02091.rr.txt\n'
p946
aS'rr_data/e01501.rr.txt\n'
p947
aS'rr_data/e01894.rr.txt\n'
p948
aS'rr_data/b0400.rr.txt\n'
p949
aS'rr_data/e00307.rr.txt\n'
p950
aS'rr_data/e00395.rr.txt\n'
p951
aS'rr_data/e00446.rr.txt\n'
p952
aS'rr_data/e00215.rr.txt\n'
p953
aS'rr_data/e00437.rr.txt\n'
p954
aS'rr_data/f0036.rr.txt\n'
p955
aS'rr_data/b0157.rr.txt\n'
p956
aS'rr_data/e01842.rr.txt\n'
p957
aS'rr_data/e01148.rr.txt\n'
p958
aS'rr_data/e00814.rr.txt\n'
p959
aS'rr_data/e00285.rr.txt\n'
p960
aS'rr_data/a0289.rr.txt\n'
p961
aS'rr_data/b0198.rr.txt\n'
p962
aS'rr_data/e01556.rr.txt\n'
p963
aS'rr_data/e01167.rr.txt\n'
p964
aS'rr_data/e01326.rr.txt\n'
p965
aS'rr_data/e02088.rr.txt\n'
p966
aS'rr_data/b0312.rr.txt\n'
p967
aS'rr_data/e00855.rr.txt\n'
p968
aS'rr_data/e01952.rr.txt\n'
p969
aS'rr_data/e01754.rr.txt\n'
p970
aS'rr_data/e01524.rr.txt\n'
p971
aS'rr_data/e01644.rr.txt\n'
p972
aS'rr_data/e01089.rr.txt\n'
p973
aS'rr_data/e01337.rr.txt\n'
p974
aS'rr_data/e01989.rr.txt\n'
p975
aS'rr_data/e00541.rr.txt\n'
p976
aS'rr_data/e00748.rr.txt\n'
p977
aS'rr_data/b0132.rr.txt\n'
p978
aS'rr_data/e00094.rr.txt\n'
p979
aS'rr_data/f0039.rr.txt\n'
p980
aS'rr_data/b0441.rr.txt\n'
p981
aS'rr_data/e01145.rr.txt\n'
p982
aS'rr_data/e00989.rr.txt\n'
p983
aS'rr_data/f0101.rr.txt\n'
p984
aS'rr_data/e01170.rr.txt\n'
p985
aS'rr_data/e00006.rr.txt\n'
p986
aS'rr_data/e01354.rr.txt\n'
p987
aS'rr_data/e00849.rr.txt\n'
p988
aS'rr_data/b0085.rr.txt\n'
p989
aS'rr_data/a0274.rr.txt\n'
p990
aS'rr_data/e01553.rr.txt\n'
p991
aS'rr_data/b0151.rr.txt\n'
p992
aS'rr_data/b0122.rr.txt\n'
p993
aS'rr_data/f0084.rr.txt\n'
p994
aS'rr_data/a0070.rr.txt\n'
p995
aS'rr_data/b0051.rr.txt\n'
p996
aS'rr_data/e01794.rr.txt\n'
p997
aS'rr_data/e00556.rr.txt\n'
p998
aS'rr_data/e01321.rr.txt\n'
p999
aS'rr_data/e01781.rr.txt\n'
p1000
aS'rr_data/f0001.rr.txt\n'
p1001
aS'rr_data/e00704.rr.txt\n'
p1002
aS'rr_data/e00593.rr.txt\n'
p1003
aS'rr_data/e01448.rr.txt\n'
p1004
aS'rr_data/e00478.rr.txt\n'
p1005
aS'rr_data/e00017.rr.txt\n'
p1006
aS'rr_data/e00635.rr.txt\n'
p1007
aS'rr_data/e01459.rr.txt\n'
p1008
aS'rr_data/e00550.rr.txt\n'
p1009
aS'rr_data/e01561.rr.txt\n'
p1010
aS'rr_data/a0081.rr.txt\n'
p1011
aS'rr_data/b0246.rr.txt\n'
p1012
aS'rr_data/a0016.rr.txt\n'
p1013
aS'rr_data/e00002.rr.txt\n'
p1014
aS'rr_data/e02018.rr.txt\n'
p1015
aS'rr_data/e00850.rr.txt\n'
p1016
aS'rr_data/e01480.rr.txt\n'
p1017
aS'rr_data/e00333.rr.txt\n'
p1018
aS'rr_data/e00725.rr.txt\n'
p1019
aS'rr_data/e01742.rr.txt\n'
p1020
aS'rr_data/e00386.rr.txt\n'
p1021
aS'rr_data/e01640.rr.txt\n'
p1022
aS'rr_data/b0443.rr.txt\n'
p1023
aS'rr_data/e01916.rr.txt\n'
p1024
aS'rr_data/e01683.rr.txt\n'
p1025
aS'rr_data/b0362.rr.txt\n'
p1026
aS'rr_data/e01915.rr.txt\n'
p1027
aS'rr_data/f0048.rr.txt\n'
p1028
aS'rr_data/e01737.rr.txt\n'
p1029
aS'rr_data/e00826.rr.txt\n'
p1030
aS'rr_data/e00553.rr.txt\n'
p1031
aS'rr_data/b0180.rr.txt\n'
p1032
aS'rr_data/e00681.rr.txt\n'
p1033
aS'rr_data/e00238.rr.txt\n'
p1034
aS'rr_data/e00453.rr.txt\n'
p1035
aS'rr_data/a0270.rr.txt\n'
p1036
aS'rr_data/e02129.rr.txt\n'
p1037
aS'rr_data/e00202.rr.txt\n'
p1038
aS'rr_data/a0352.rr.txt\n'
p1039
aS'rr_data/a0012.rr.txt\n'
p1040
aS'rr_data/a0141.rr.txt\n'
p1041
aS'rr_data/e00522.rr.txt\n'
p1042
aS'rr_data/e00875.rr.txt\n'
p1043
aS'rr_data/e00277.rr.txt\n'
p1044
aS'rr_data/d0036.rr.txt\n'
p1045
aS'rr_data/f0005.rr.txt\n'
p1046
aS'rr_data/e01398.rr.txt\n'
p1047
aS'rr_data/e00438.rr.txt\n'
p1048
aS'rr_data/e01911.rr.txt\n'
p1049
aS'rr_data/e00930.rr.txt\n'
p1050
aS'rr_data/e02110.rr.txt\n'
p1051
aS'rr_data/e01536.rr.txt\n'
p1052
aS'rr_data/e01118.rr.txt\n'
p1053
aS'rr_data/e01722.rr.txt\n'
p1054
aS'rr_data/e00489.rr.txt\n'
p1055
aS'rr_data/b0075.rr.txt\n'
p1056
aS'rr_data/e01484.rr.txt\n'
p1057
aS'rr_data/e00143.rr.txt\n'
p1058
aS'rr_data/e00829.rr.txt\n'
p1059
aS'rr_data/e00986.rr.txt\n'
p1060
aS'rr_data/c0006.rr.txt\n'
p1061
aS'rr_data/e01060.rr.txt\n'
p1062
aS'rr_data/e00667.rr.txt\n'
p1063
aS'rr_data/e00225.rr.txt\n'
p1064
aS'rr_data/e01488.rr.txt\n'
p1065
aS'rr_data/e00584.rr.txt\n'
p1066
aS'rr_data/e00486.rr.txt\n'
p1067
aS'rr_data/e01257.rr.txt\n'
p1068
aS'rr_data/e00129.rr.txt\n'
p1069
aS'rr_data/e00867.rr.txt\n'
p1070
aS'rr_data/e01550.rr.txt\n'
p1071
aS'rr_data/b0149.rr.txt\n'
p1072
aS'rr_data/e01116.rr.txt\n'
p1073
aS'rr_data/e01466.rr.txt\n'
p1074
aS'rr_data/e01407.rr.txt\n'
p1075
aS'rr_data/e00668.rr.txt\n'
p1076
aS'rr_data/b0277.rr.txt\n'
p1077
aS'rr_data/e00743.rr.txt\n'
p1078
aS'rr_data/e01414.rr.txt\n'
p1079
aS'rr_data/b0113.rr.txt\n'
p1080
aS'rr_data/e01727.rr.txt\n'
p1081
aS'rr_data/e00708.rr.txt\n'
p1082
aS'rr_data/e01188.rr.txt\n'
p1083
aS'rr_data/e01495.rr.txt\n'
p1084
aS'rr_data/e00712.rr.txt\n'
p1085
aS'rr_data/e00588.rr.txt\n'
p1086
aS'rr_data/b0345.rr.txt\n'
p1087
aS'rr_data/e01353.rr.txt\n'
p1088
aS'rr_data/e01222.rr.txt\n'
p1089
aS'rr_data/b0146.rr.txt\n'
p1090
aS'rr_data/e01372.rr.txt\n'
p1091
aS'rr_data/e01525.rr.txt\n'
p1092
aS'rr_data/e00206.rr.txt\n'
p1093
aS'rr_data/b0461.rr.txt\n'
p1094
aS'rr_data/f0009.rr.txt\n'
p1095
aS'rr_data/e00105.rr.txt\n'
p1096
aS'rr_data/e01404.rr.txt\n'
p1097
aS'rr_data/e00077.rr.txt\n'
p1098
aS'rr_data/e01895.rr.txt\n'
p1099
aS'rr_data/e00198.rr.txt\n'
p1100
aS'rr_data/e00807.rr.txt\n'
p1101
aS'rr_data/e01724.rr.txt\n'
p1102
aS'rr_data/b0143.rr.txt\n'
p1103
aS'rr_data/e01241.rr.txt\n'
p1104
aS'rr_data/f0027.rr.txt\n'
p1105
aS'rr_data/e00735.rr.txt\n'
p1106
aS'rr_data/e01293.rr.txt\n'
p1107
aS'rr_data/e00084.rr.txt\n'
p1108
aS'rr_data/e01259.rr.txt\n'
p1109
aS'rr_data/e00512.rr.txt\n'
p1110
aS'rr_data/e01657.rr.txt\n'
p1111
aS'rr_data/e01611.rr.txt\n'
p1112
aS'rr_data/e00594.rr.txt\n'
p1113
aS'rr_data/a0361.rr.txt\n'
p1114
aS'rr_data/e01017.rr.txt\n'
p1115
aS'rr_data/e00231.rr.txt\n'
p1116
aS'rr_data/e00691.rr.txt\n'
p1117
aS'rr_data/b0358.rr.txt\n'
p1118
aS'rr_data/b0150.rr.txt\n'
p1119
aS'rr_data/b0174.rr.txt\n'
p1120
aS'rr_data/e00447.rr.txt\n'
p1121
aS'rr_data/e00123.rr.txt\n'
p1122
aS'rr_data/e00976.rr.txt\n'
p1123
aS'rr_data/b0420.rr.txt\n'
p1124
aS'rr_data/e00608.rr.txt\n'
p1125
aS'rr_data/e01771.rr.txt\n'
p1126
aS'rr_data/e00022.rr.txt\n'
p1127
aS'rr_data/e01184.rr.txt\n'
p1128
aS'rr_data/a0025.rr.txt\n'
p1129
aS'rr_data/e00632.rr.txt\n'
p1130
aS'rr_data/e00033.rr.txt\n'
p1131
aS'rr_data/f0114.rr.txt\n'
p1132
aS'rr_data/e02020.rr.txt\n'
p1133
aS'rr_data/e01410.rr.txt\n'
p1134
aS'rr_data/e00492.rr.txt\n'
p1135
aS'rr_data/b0066.rr.txt\n'
p1136
aS'rr_data/b0411.rr.txt\n'
p1137
aS'rr_data/e01908.rr.txt\n'
p1138
aS'rr_data/e01985.rr.txt\n'
p1139
aS'rr_data/e01538.rr.txt\n'
p1140
aS'rr_data/e00159.rr.txt\n'
p1141
aS'rr_data/e01520.rr.txt\n'
p1142
aS'rr_data/e00192.rr.txt\n'
p1143
aS'rr_data/b0386.rr.txt\n'
p1144
aS'rr_data/e01315.rr.txt\n'
p1145
aS'rr_data/e00783.rr.txt\n'
p1146
aS'rr_data/e01956.rr.txt\n'
p1147
aS'rr_data/e02016.rr.txt\n'
p1148
aS'rr_data/e02138.rr.txt\n'
p1149
aS'rr_data/e01187.rr.txt\n'
p1150
aS'rr_data/e00724.rr.txt\n'
p1151
aS'rr_data/b0144.rr.txt\n'
p1152
aS'rr_data/e01331.rr.txt\n'
p1153
aS'rr_data/b0102.rr.txt\n'
p1154
aS'rr_data/e01347.rr.txt\n'
p1155
aS'rr_data/e00175.rr.txt\n'
p1156
aS'rr_data/d0044.rr.txt\n'
p1157
aS'rr_data/d0025.rr.txt\n'
p1158
aS'rr_data/e01746.rr.txt\n'
p1159
aS'rr_data/e00926.rr.txt\n'
p1160
aS'rr_data/e01424.rr.txt\n'
p1161
aS'rr_data/e01276.rr.txt\n'
p1162
aS'rr_data/e01863.rr.txt\n'
p1163
aS'rr_data/e00399.rr.txt\n'
p1164
aS'rr_data/e00025.rr.txt\n'
p1165
aS'rr_data/e00894.rr.txt\n'
p1166
aS'rr_data/a0035.rr.txt\n'
p1167
aS'rr_data/e00463.rr.txt\n'
p1168
aS'rr_data/e01674.rr.txt\n'
p1169
aS'rr_data/e00739.rr.txt\n'
p1170
aS'rr_data/e01597.rr.txt\n'
p1171
aS'rr_data/a0028.rr.txt\n'
p1172
aS'rr_data/a0208.rr.txt\n'
p1173
aS'rr_data/d0050.rr.txt\n'
p1174
aS'rr_data/e02042.rr.txt\n'
p1175
aS'rr_data/e01134.rr.txt\n'
p1176
aS'rr_data/e00914.rr.txt\n'
p1177
aS'rr_data/e01702.rr.txt\n'
p1178
aS'rr_data/e01669.rr.txt\n'
p1179
aS'rr_data/e00377.rr.txt\n'
p1180
aS'rr_data/e00710.rr.txt\n'
p1181
aS'rr_data/e01008.rr.txt\n'
p1182
aS'rr_data/e02053.rr.txt\n'
p1183
aS'rr_data/e01180.rr.txt\n'
p1184
aS'rr_data/e01810.rr.txt\n'
p1185
aS'rr_data/b0321.rr.txt\n'
p1186
aS'rr_data/e01926.rr.txt\n'
p1187
aS'rr_data/b0189.rr.txt\n'
p1188
aS'rr_data/a0007.rr.txt\n'
p1189
aS'rr_data/e01825.rr.txt\n'
p1190
aS'rr_data/b0429.rr.txt\n'
p1191
aS'rr_data/b0415.rr.txt\n'
p1192
aS'rr_data/e01086.rr.txt\n'
p1193
aS'rr_data/e00928.rr.txt\n'
p1194
aS'rr_data/e00364.rr.txt\n'
p1195
aS'rr_data/e01191.rr.txt\n'
p1196
aS'rr_data/e00746.rr.txt\n'
p1197
aS'rr_data/e01493.rr.txt\n'
p1198
aS'rr_data/e01676.rr.txt\n'
p1199
aS'rr_data/e00035.rr.txt\n'
p1200
aS'rr_data/e00322.rr.txt\n'
p1201
aS'rr_data/e01807.rr.txt\n'
p1202
aS'rr_data/e01050.rr.txt\n'
p1203
aS'rr_data/e01763.rr.txt\n'
p1204
aS'rr_data/e02006.rr.txt\n'
p1205
aS'rr_data/b0184.rr.txt\n'
p1206
aS'rr_data/e01784.rr.txt\n'
p1207
aS'rr_data/b0269.rr.txt\n'
p1208
aS'rr_data/e00677.rr.txt\n'
p1209
aS'rr_data/b0374.rr.txt\n'
p1210
aS'rr_data/e00675.rr.txt\n'
p1211
aS'rr_data/b0026.rr.txt\n'
p1212
aS'rr_data/e01544.rr.txt\n'
p1213
aS'rr_data/e00887.rr.txt\n'
p1214
aS'rr_data/e01660.rr.txt\n'
p1215
aS'rr_data/e00013.rr.txt\n'
p1216
aS'rr_data/e01862.rr.txt\n'
p1217
aS'rr_data/e01870.rr.txt\n'
p1218
aS'rr_data/e01806.rr.txt\n'
p1219
aS'rr_data/b0488.rr.txt\n'
p1220
aS'rr_data/e00166.rr.txt\n'
p1221
aS'rr_data/e01617.rr.txt\n'
p1222
aS'rr_data/e00719.rr.txt\n'
p1223
aS'rr_data/e01904.rr.txt\n'
p1224
aS'rr_data/e00718.rr.txt\n'
p1225
aS'rr_data/e00842.rr.txt\n'
p1226
aS'rr_data/e01431.rr.txt\n'
p1227
aS'rr_data/e00280.rr.txt\n'
p1228
aS'rr_data/b0389.rr.txt\n'
p1229
aS'rr_data/e02037.rr.txt\n'
p1230
aS'rr_data/e02092.rr.txt\n'
p1231
aS'rr_data/e01487.rr.txt\n'
p1232
aS'rr_data/e01780.rr.txt\n'
p1233
aS'rr_data/e01930.rr.txt\n'
p1234
aS'rr_data/e01558.rr.txt\n'
p1235
aS'rr_data/e01883.rr.txt\n'
p1236
aS'rr_data/e01718.rr.txt\n'
p1237
aS'rr_data/e00381.rr.txt\n'
p1238
aS'rr_data/e00098.rr.txt\n'
p1239
aS'rr_data/e00360.rr.txt\n'
p1240
aS'rr_data/e00479.rr.txt\n'
p1241
aS'rr_data/b0366.rr.txt\n'
p1242
aS'rr_data/e02100.rr.txt\n'
p1243
aS'rr_data/e00939.rr.txt\n'
p1244
aS'rr_data/b0320.rr.txt\n'
p1245
aS'rr_data/e01359.rr.txt\n'
p1246
aS'rr_data/e00801.rr.txt\n'
p1247
aS'rr_data/e00271.rr.txt\n'
p1248
aS'rr_data/e02076.rr.txt\n'
p1249
aS'rr_data/e02082.rr.txt\n'
p1250
aS'rr_data/b0093.rr.txt\n'
p1251
aS'rr_data/e00111.rr.txt\n'
p1252
aS'rr_data/e00908.rr.txt\n'
p1253
aS'rr_data/e00974.rr.txt\n'
p1254
aS'rr_data/e00474.rr.txt\n'
p1255
aS'rr_data/e00772.rr.txt\n'
p1256
aS'rr_data/e01110.rr.txt\n'
p1257
aS'rr_data/e01796.rr.txt\n'
p1258
aS'rr_data/f0074.rr.txt\n'
p1259
aS'rr_data/b0053.rr.txt\n'
p1260
aS'rr_data/e01363.rr.txt\n'
p1261
aS'rr_data/e01142.rr.txt\n'
p1262
aS'rr_data/a0253.rr.txt\n'
p1263
aS'rr_data/e00272.rr.txt\n'
p1264
aS'rr_data/e01362.rr.txt\n'
p1265
aS'rr_data/e01664.rr.txt\n'
p1266
aS'rr_data/e01919.rr.txt\n'
p1267
aS'rr_data/e01598.rr.txt\n'
p1268
aS'rr_data/e01040.rr.txt\n'
p1269
aS'rr_data/e01324.rr.txt\n'
p1270
aS'rr_data/e01983.rr.txt\n'
p1271
aS'rr_data/f0002.rr.txt\n'
p1272
aS'rr_data/e01960.rr.txt\n'
p1273
aS'rr_data/e00085.rr.txt\n'
p1274
aS'rr_data/e01757.rr.txt\n'
p1275
aS'rr_data/e02078.rr.txt\n'
p1276
aS'rr_data/e01165.rr.txt\n'
p1277
aS'rr_data/e00934.rr.txt\n'
p1278
aS'rr_data/e00902.rr.txt\n'
p1279
aS'rr_data/e01777.rr.txt\n'
p1280
aS'rr_data/e01309.rr.txt\n'
p1281
aS'rr_data/e00750.rr.txt\n'
p1282
aS'rr_data/e01799.rr.txt\n'
p1283
aS'rr_data/f0024.rr.txt\n'
p1284
aS'rr_data/b0017.rr.txt\n'
p1285
aS'rr_data/f0046.rr.txt\n'
p1286
aS'rr_data/a0094.rr.txt\n'
p1287
aS'rr_data/e01147.rr.txt\n'
p1288
aS'rr_data/e00167.rr.txt\n'
p1289
aS'rr_data/e00568.rr.txt\n'
p1290
aS'rr_data/e01704.rr.txt\n'
p1291
aS'rr_data/b0287.rr.txt\n'
p1292
aS'rr_data/b0059.rr.txt\n'
p1293
aS'rr_data/e00200.rr.txt\n'
p1294
aS'rr_data/e01903.rr.txt\n'
p1295
aS'rr_data/e00779.rr.txt\n'
p1296
aS'rr_data/e01565.rr.txt\n'
p1297
aS'rr_data/e01127.rr.txt\n'
p1298
aS'rr_data/e01150.rr.txt\n'
p1299
aS'rr_data/e01868.rr.txt\n'
p1300
aS'rr_data/e01624.rr.txt\n'
p1301
aS'rr_data/e01785.rr.txt\n'
p1302
aS'rr_data/b0268.rr.txt\n'
p1303
aS'rr_data/e01098.rr.txt\n'
p1304
aS'rr_data/a0325.rr.txt\n'
p1305
aS'rr_data/e01885.rr.txt\n'
p1306
aS'rr_data/b0207.rr.txt\n'
p1307
aS'rr_data/e00617.rr.txt\n'
p1308
aS'rr_data/e02059.rr.txt\n'
p1309
aS'rr_data/e00788.rr.txt\n'
p1310
aS'rr_data/e01144.rr.txt\n'
p1311
aS'rr_data/e00211.rr.txt\n'
p1312
aS'rr_data/e00745.rr.txt\n'
p1313
aS'rr_data/e00007.rr.txt\n'
p1314
aS'rr_data/b0250.rr.txt\n'
p1315
aS'rr_data/e01356.rr.txt\n'
p1316
aS'rr_data/f0043.rr.txt\n'
p1317
aS'rr_data/e02140.rr.txt\n'
p1318
aS'rr_data/b0303.rr.txt\n'
p1319
aS'rr_data/e01091.rr.txt\n'
p1320
aS'rr_data/e00242.rr.txt\n'
p1321
aS'rr_data/e00091.rr.txt\n'
p1322
aS'rr_data/e00764.rr.txt\n'
p1323
aS'rr_data/e01162.rr.txt\n'
p1324
aS'rr_data/e02047.rr.txt\n'
p1325
aS'rr_data/e00424.rr.txt\n'
p1326
aS'rr_data/e01819.rr.txt\n'
p1327
aS'rr_data/e01085.rr.txt\n'
p1328
aS'rr_data/e01987.rr.txt\n'
p1329
aS'rr_data/e00223.rr.txt\n'
p1330
aS'rr_data/b0354.rr.txt\n'
p1331
aS'rr_data/e01843.rr.txt\n'
p1332
aS'rr_data/e01111.rr.txt\n'
p1333
aS'rr_data/e01620.rr.txt\n'
p1334
aS'rr_data/e00642.rr.txt\n'
p1335
aS'rr_data/b0111.rr.txt\n'
p1336
aS'rr_data/e00892.rr.txt\n'
p1337
aS'rr_data/e01416.rr.txt\n'
p1338
aS'rr_data/e01277.rr.txt\n'
p1339
aS'rr_data/e00653.rr.txt\n'
p1340
aS'rr_data/e01344.rr.txt\n'
p1341
aS'rr_data/e00533.rr.txt\n'
p1342
aS'rr_data/e01795.rr.txt\n'
p1343
aS'rr_data/e00552.rr.txt\n'
p1344
aS'rr_data/e01486.rr.txt\n'
p1345
aS'rr_data/b0097.rr.txt\n'
p1346
aS'rr_data/e01798.rr.txt\n'
p1347
aS'rr_data/e00922.rr.txt\n'
p1348
aS'rr_data/e00379.rr.txt\n'
p1349
aS'rr_data/e01463.rr.txt\n'
p1350
aS'rr_data/e01224.rr.txt\n'
p1351
aS'rr_data/e01606.rr.txt\n'
p1352
aS'rr_data/e01492.rr.txt\n'
p1353
aS'rr_data/b0126.rr.txt\n'
p1354
aS'rr_data/e01039.rr.txt\n'
p1355
aS'rr_data/e00686.rr.txt\n'
p1356
aS'rr_data/e01328.rr.txt\n'
p1357
aS'rr_data/e01364.rr.txt\n'
p1358
aS'rr_data/e00382.rr.txt\n'
p1359
aS'rr_data/e00866.rr.txt\n'
p1360
aS'rr_data/e00109.rr.txt\n'
p1361
aS'rr_data/a0405.rr.txt\n'
p1362
aS'rr_data/b0261.rr.txt\n'
p1363
aS'rr_data/b0305.rr.txt\n'
p1364
aS'rr_data/e00514.rr.txt\n'
p1365
aS'rr_data/b0172.rr.txt\n'
p1366
aS'rr_data/e01452.rr.txt\n'
p1367
aS'rr_data/e00179.rr.txt\n'
p1368
aS'rr_data/e00645.rr.txt\n'
p1369
aS'rr_data/e01446.rr.txt\n'
p1370
aS'rr_data/e00586.rr.txt\n'
p1371
aS'rr_data/b0163.rr.txt\n'
p1372
aS'rr_data/e01435.rr.txt\n'
p1373
aS'rr_data/e01157.rr.txt\n'
p1374
aS'rr_data/f0097.rr.txt\n'
p1375
aS'rr_data/e00131.rr.txt\n'
p1376
aS'rr_data/e00559.rr.txt\n'
p1377
aS'rr_data/e00318.rr.txt\n'
p1378
aS'rr_data/e00404.rr.txt\n'
p1379
aS'rr_data/e00150.rr.txt\n'
p1380
aS'rr_data/e00723.rr.txt\n'
p1381
aS'rr_data/e00197.rr.txt\n'
p1382
aS'rr_data/f0107.rr.txt\n'
p1383
aS'rr_data/b0383.rr.txt\n'
p1384
aS'rr_data/e00473.rr.txt\n'
p1385
aS'rr_data/e01847.rr.txt\n'
p1386
aS'rr_data/f0033.rr.txt\n'
p1387
aS'rr_data/a0029.rr.txt\n'
p1388
aS'rr_data/e01907.rr.txt\n'
p1389
aS'rr_data/e02019.rr.txt\n'
p1390
aS'rr_data/e01093.rr.txt\n'
p1391
aS'rr_data/e00250.rr.txt\n'
p1392
aS'rr_data/d0054.rr.txt\n'
p1393
aS'rr_data/b0028.rr.txt\n'
p1394
aS'rr_data/e00982.rr.txt\n'
p1395
aS'rr_data/e00795.rr.txt\n'
p1396
aS'rr_data/e01071.rr.txt\n'
p1397
aS'rr_data/a0393.rr.txt\n'
p1398
aS'rr_data/e01046.rr.txt\n'
p1399
aS'rr_data/e00954.rr.txt\n'
p1400
aS'rr_data/e01705.rr.txt\n'
p1401
aS'rr_data/b0289.rr.txt\n'
p1402
aS'rr_data/e01814.rr.txt\n'
p1403
aS'rr_data/b0425.rr.txt\n'
p1404
aS'rr_data/e00184.rr.txt\n'
p1405
aS'rr_data/e01133.rr.txt\n'
p1406
aS'rr_data/e01346.rr.txt\n'
p1407
aS'rr_data/e00258.rr.txt\n'
p1408
aS'rr_data/e00655.rr.txt\n'
p1409
aS'rr_data/b0326.rr.txt\n'
p1410
aS'rr_data/f0054.rr.txt\n'
p1411
aS'rr_data/a0155.rr.txt\n'
p1412
aS'rr_data/e01103.rr.txt\n'
p1413
aS'rr_data/e01002.rr.txt\n'
p1414
aS'rr_data/a0271.rr.txt\n'
p1415
aS'rr_data/e00443.rr.txt\n'
p1416
aS'rr_data/b0009.rr.txt\n'
p1417
aS'rr_data/e02004.rr.txt\n'
p1418
aS'rr_data/e01539.rr.txt\n'
p1419
aS'rr_data/b0310.rr.txt\n'
p1420
aS'rr_data/e00292.rr.txt\n'
p1421
aS'rr_data/e00283.rr.txt\n'
p1422
aS'rr_data/e00299.rr.txt\n'
p1423
aS'rr_data/e00441.rr.txt\n'
p1424
aS'rr_data/f0112.rr.txt\n'
p1425
aS'rr_data/e00673.rr.txt\n'
p1426
aS'rr_data/e01503.rr.txt\n'
p1427
aS'rr_data/b0228.rr.txt\n'
p1428
aS'rr_data/e00806.rr.txt\n'
p1429
aS'rr_data/e00579.rr.txt\n'
p1430
aS'rr_data/e01313.rr.txt\n'
p1431
aS'rr_data/e01342.rr.txt\n'
p1432
aS'rr_data/b0083.rr.txt\n'
p1433
aS'rr_data/e02128.rr.txt\n'
p1434
aS'rr_data/b0152.rr.txt\n'
p1435
aS'rr_data/b0241.rr.txt\n'
p1436
aS'rr_data/e01566.rr.txt\n'
p1437
aS'rr_data/b0129.rr.txt\n'
p1438
aS'rr_data/e01249.rr.txt\n'
p1439
aS'rr_data/e01074.rr.txt\n'
p1440
aS'rr_data/e01893.rr.txt\n'
p1441
aS'rr_data/e00877.rr.txt\n'
p1442
aS'rr_data/e01178.rr.txt\n'
p1443
aS'rr_data/e01001.rr.txt\n'
p1444
aS'rr_data/e00289.rr.txt\n'
p1445
aS'rr_data/e00161.rr.txt\n'
p1446
aS'rr_data/e01576.rr.txt\n'
p1447
aS'rr_data/b0244.rr.txt\n'
p1448
aS'rr_data/e01563.rr.txt\n'
p1449
aS'rr_data/e01010.rr.txt\n'
p1450
aS'rr_data/e00180.rr.txt\n'
p1451
aS'rr_data/e01340.rr.txt\n'
p1452
aS'rr_data/b0394.rr.txt\n'
p1453
aS'rr_data/e00284.rr.txt\n'
p1454
aS'rr_data/b0276.rr.txt\n'
p1455
aS'rr_data/e01316.rr.txt\n'
p1456
aS'rr_data/e00794.rr.txt\n'
p1457
aS'rr_data/f0022.rr.txt\n'
p1458
aS'rr_data/e01583.rr.txt\n'
p1459
aS'rr_data/e01999.rr.txt\n'
p1460
aS'rr_data/b0406.rr.txt\n'
p1461
aS'rr_data/f0032.rr.txt\n'
p1462
aS'rr_data/e01336.rr.txt\n'
p1463
aS'rr_data/e01728.rr.txt\n'
p1464
aS'rr_data/e01530.rr.txt\n'
p1465
aS'rr_data/e01988.rr.txt\n'
p1466
aS'rr_data/e01327.rr.txt\n'
p1467
aS'rr_data/e01057.rr.txt\n'
p1468
aS'rr_data/e00319.rr.txt\n'
p1469
aS'rr_data/e00868.rr.txt\n'
p1470
aS'rr_data/e01320.rr.txt\n'
p1471
aS'rr_data/e02001.rr.txt\n'
p1472
aS'rr_data/e00122.rr.txt\n'
p1473
aS'rr_data/e00040.rr.txt\n'
p1474
aS'rr_data/e00018.rr.txt\n'
p1475
aS'rr_data/e01425.rr.txt\n'
p1476
aS'rr_data/e00118.rr.txt\n'
p1477
aS'rr_data/e02086.rr.txt\n'
p1478
aS'rr_data/e01889.rr.txt\n'
p1479
aS'rr_data/e01522.rr.txt\n'
p1480
aS'rr_data/b0297.rr.txt\n'
p1481
aS'rr_data/e00158.rr.txt\n'
p1482
aS'rr_data/b0204.rr.txt\n'
p1483
aS'rr_data/f0030.rr.txt\n'
p1484
aS'rr_data/e01631.rr.txt\n'
p1485
aS'rr_data/e01491.rr.txt\n'
p1486
aS'rr_data/e00343.rr.txt\n'
p1487
aS'rr_data/e01913.rr.txt\n'
p1488
aS'rr_data/e01928.rr.txt\n'
p1489
aS'rr_data/e01630.rr.txt\n'
p1490
aS'rr_data/e01220.rr.txt\n'
p1491
aS'rr_data/e00895.rr.txt\n'
p1492
aS'rr_data/e01373.rr.txt\n'
p1493
aS'rr_data/e01747.rr.txt\n'
p1494
aS'rr_data/e00146.rr.txt\n'
p1495
aS'rr_data/e01117.rr.txt\n'
p1496
aS'rr_data/e00530.rr.txt\n'
p1497
aS'rr_data/e00455.rr.txt\n'
p1498
aS'rr_data/e01438.rr.txt\n'
p1499
aS'rr_data/e00817.rr.txt\n'
p1500
aS'rr_data/e01053.rr.txt\n'
p1501
aS'rr_data/e00413.rr.txt\n'
p1502
aS'rr_data/e00301.rr.txt\n'
p1503
aS'rr_data/a0091.rr.txt\n'
p1504
aS'rr_data/e00615.rr.txt\n'
p1505
aS'rr_data/e00969.rr.txt\n'
p1506
aS'rr_data/e01845.rr.txt\n'
p1507
aS'rr_data/e01397.rr.txt\n'
p1508
aS'rr_data/e00519.rr.txt\n'
p1509
aS'rr_data/e00157.rr.txt\n'
p1510
aS'rr_data/e02064.rr.txt\n'
p1511
aS'rr_data/e00396.rr.txt\n'
p1512
aS'rr_data/a0080.rr.txt\n'
p1513
aS'rr_data/b0272.rr.txt\n'
p1514
aS'rr_data/e00881.rr.txt\n'
p1515
aS'rr_data/e00493.rr.txt\n'
p1516
aS'rr_data/b0067.rr.txt\n'
p1517
aS'rr_data/b0314.rr.txt\n'
p1518
aS'rr_data/e00312.rr.txt\n'
p1519
aS'rr_data/e00138.rr.txt\n'
p1520
aS'rr_data/b0302.rr.txt\n'
p1521
aS'rr_data/e01528.rr.txt\n'
p1522
aS'rr_data/e00335.rr.txt\n'
p1523
aS'rr_data/e00996.rr.txt\n'
p1524
aS'rr_data/e00665.rr.txt\n'
p1525
aS'rr_data/e01462.rr.txt\n'
p1526
aS'rr_data/b0203.rr.txt\n'
p1527
aS'rr_data/e01595.rr.txt\n'
p1528
aS'rr_data/b0325.rr.txt\n'
p1529
aS'rr_data/e00574.rr.txt\n'
p1530
aS'rr_data/e00504.rr.txt\n'
p1531
aS'rr_data/e00808.rr.txt\n'
p1532
aS'rr_data/e00310.rr.txt\n'
p1533
aS'rr_data/e01413.rr.txt\n'
p1534
aS'rr_data/e02010.rr.txt\n'
p1535
aS'rr_data/b0490.rr.txt\n'
p1536
aS'rr_data/e00083.rr.txt\n'
p1537
aS'rr_data/e00768.rr.txt\n'
p1538
aS'rr_data/e00414.rr.txt\n'
p1539
aS'rr_data/e01612.rr.txt\n'
p1540
aS'rr_data/b0480.rr.txt\n'
p1541
aS'rr_data/e00720.rr.txt\n'
p1542
aS'rr_data/e00482.rr.txt\n'
p1543
aS'rr_data/e01578.rr.txt\n'
p1544
aS'rr_data/a0212.rr.txt\n'
p1545
aS'rr_data/e00781.rr.txt\n'
p1546
aS'rr_data/e01948.rr.txt\n'
p1547
aS'rr_data/e00214.rr.txt\n'
p1548
aS'rr_data/e00899.rr.txt\n'
p1549
aS'rr_data/e01998.rr.txt\n'
p1550
aS'rr_data/e01931.rr.txt\n'
p1551
aS'rr_data/e01285.rr.txt\n'
p1552
aS'rr_data/e01290.rr.txt\n'
p1553
aS'rr_data/b0003.rr.txt\n'
p1554
aS'rr_data/e00199.rr.txt\n'
p1555
aS'rr_data/a0069.rr.txt\n'
p1556
aS'rr_data/e00611.rr.txt\n'
p1557
aS'rr_data/c0030.rr.txt\n'
p1558
aS'rr_data/b0430.rr.txt\n'
p1559
aS'rr_data/e00467.rr.txt\n'
p1560
aS'rr_data/e00837.rr.txt\n'
p1561
aS'rr_data/e01381.rr.txt\n'
p1562
aS'rr_data/e01212.rr.txt\n'
p1563
aS'rr_data/e00162.rr.txt\n'
p1564
aS'rr_data/e00261.rr.txt\n'
p1565
aS'rr_data/e01361.rr.txt\n'
p1566
aS'rr_data/e00716.rr.txt\n'
p1567
aS'rr_data/b0001.rr.txt\n'
p1568
aS'rr_data/e00390.rr.txt\n'
p1569
aS'rr_data/f0055.rr.txt\n'
p1570
aS'rr_data/f0110.rr.txt\n'
p1571
aS'rr_data/e01699.rr.txt\n'
p1572
aS'rr_data/e01202.rr.txt\n'
p1573
aS'rr_data/e01580.rr.txt\n'
p1574
aS'rr_data/b0435.rr.txt\n'
p1575
aS'rr_data/e01389.rr.txt\n'
p1576
aS'rr_data/b0166.rr.txt\n'
p1577
aS'rr_data/e01006.rr.txt\n'
p1578
aS'rr_data/e01589.rr.txt\n'
p1579
aS'rr_data/f0019.rr.txt\n'
p1580
aS'rr_data/b0419.rr.txt\n'
p1581
aS'rr_data/b0333.rr.txt\n'
p1582
aS'rr_data/b0123.rr.txt\n'
p1583
aS'rr_data/b0412.rr.txt\n'
p1584
aS'rr_data/e00125.rr.txt\n'
p1585
aS'rr_data/e00820.rr.txt\n'
p1586
aS'rr_data/e00487.rr.txt\n'
p1587
aS'rr_data/e02079.rr.txt\n'
p1588
aS'rr_data/e01765.rr.txt\n'
p1589
aS'rr_data/e00400.rr.txt\n'
p1590
aS'rr_data/e01993.rr.txt\n'
p1591
aS'rr_data/e01957.rr.txt\n'
p1592
aS'rr_data/e00221.rr.txt\n'
p1593
aS'rr_data/e01876.rr.txt\n'
p1594
aS'rr_data/e02024.rr.txt\n'
p1595
aS'rr_data/e00839.rr.txt\n'
p1596
aS'rr_data/b0464.rr.txt\n'
p1597
aS'rr_data/e00264.rr.txt\n'
p1598
aS'rr_data/e01497.rr.txt\n'
p1599
aS'rr_data/e00370.rr.txt\n'
p1600
aS'rr_data/d0023.rr.txt\n'
p1601
aS'rr_data/e00429.rr.txt\n'
p1602
aS'rr_data/e01961.rr.txt\n'
p1603
aS'rr_data/b0285.rr.txt\n'
p1604
aS'rr_data/b0363.rr.txt\n'
p1605
aS'rr_data/e01527.rr.txt\n'
p1606
aS'rr_data/e01758.rr.txt\n'
p1607
aS'rr_data/e01447.rr.txt\n'
p1608
aS'rr_data/b0162.rr.txt\n'
p1609
aS'rr_data/e01153.rr.txt\n'
p1610
aS'rr_data/d0049.rr.txt\n'
p1611
aS'rr_data/b0186.rr.txt\n'
p1612
aS'rr_data/e00547.rr.txt\n'
p1613
aS'rr_data/e00832.rr.txt\n'
p1614
aS'rr_data/e00375.rr.txt\n'
p1615
aS'rr_data/e00265.rr.txt\n'
p1616
aS'rr_data/e02083.rr.txt\n'
p1617
aS'rr_data/e01822.rr.txt\n'
p1618
aS'rr_data/b0421.rr.txt\n'
p1619
aS'rr_data/e02038.rr.txt\n'
p1620
aS'rr_data/e01833.rr.txt\n'
p1621
aS'rr_data/e00361.rr.txt\n'
p1622
aS'rr_data/e02045.rr.txt\n'
p1623
aS'rr_data/e01228.rr.txt\n'
p1624
aS'rr_data/e01579.rr.txt\n'
p1625
aS'rr_data/e01687.rr.txt\n'
p1626
aS'rr_data/e00700.rr.txt\n'
p1627
aS'rr_data/e00032.rr.txt\n'
p1628
aS'rr_data/b0439.rr.txt\n'
p1629
aS'rr_data/e00332.rr.txt\n'
p1630
aS'rr_data/e00023.rr.txt\n'
p1631
aS'rr_data/e00039.rr.txt\n'
p1632
aS'rr_data/e02048.rr.txt\n'
p1633
aS'rr_data/e00751.rr.txt\n'
p1634
aS'rr_data/e00749.rr.txt\n'
p1635
aS'rr_data/e00975.rr.txt\n'
p1636
aS'rr_data/e00789.rr.txt\n'
p1637
aS'rr_data/b0170.rr.txt\n'
p1638
aS'rr_data/e01020.rr.txt\n'
p1639
aS'rr_data/b0021.rr.txt\n'
p1640
aS'rr_data/e01021.rr.txt\n'
p1641
aS'rr_data/a0227.rr.txt\n'
p1642
aS'rr_data/e01761.rr.txt\n'
p1643
aS'rr_data/e01755.rr.txt\n'
p1644
aS'rr_data/e00640.rr.txt\n'
p1645
aS'rr_data/e00956.rr.txt\n'
p1646
aS'rr_data/e00963.rr.txt\n'
p1647
aS'rr_data/e00805.rr.txt\n'
p1648
aS'rr_data/e00342.rr.txt\n'
p1649
aS'rr_data/e00425.rr.txt\n'
p1650
aS'rr_data/e01748.rr.txt\n'
p1651
aS'rr_data/e01392.rr.txt\n'
p1652
aS'rr_data/e01622.rr.txt\n'
p1653
aS'rr_data/e01261.rr.txt\n'
p1654
aS'rr_data/e00944.rr.txt\n'
p1655
aS'rr_data/e00029.rr.txt\n'
p1656
aS'rr_data/e00121.rr.txt\n'
p1657
aS'rr_data/b0024.rr.txt\n'
p1658
aS'rr_data/d0043.rr.txt\n'
p1659
aS'rr_data/e00251.rr.txt\n'
p1660
aS'rr_data/f0102.rr.txt\n'
p1661
aS'rr_data/b0134.rr.txt\n'
p1662
aS'rr_data/e00227.rr.txt\n'
p1663
aS'rr_data/e00024.rr.txt\n'
p1664
aS'rr_data/e01604.rr.txt\n'
p1665
aS'rr_data/e00062.rr.txt\n'
p1666
aS'rr_data/e00465.rr.txt\n'
p1667
aS'rr_data/e01025.rr.txt\n'
p1668
aS'rr_data/e01038.rr.txt\n'
p1669
aS'rr_data/e00787.rr.txt\n'
p1670
aS'rr_data/e01471.rr.txt\n'
p1671
aS'rr_data/a0294.rr.txt\n'
p1672
aS'rr_data/e00786.rr.txt\n'
p1673
aS'rr_data/b0055.rr.txt\n'
p1674
aS'rr_data/e01790.rr.txt\n'
p1675
aS'rr_data/e01675.rr.txt\n'
p1676
aS'rr_data/e01663.rr.txt\n'
p1677
aS'rr_data/e01442.rr.txt\n'
p1678
aS'rr_data/e00365.rr.txt\n'
p1679
aS'rr_data/e01712.rr.txt\n'
p1680
aS'rr_data/b0167.rr.txt\n'
p1681
aS'rr_data/b0304.rr.txt\n'
p1682
aS'rr_data/e00620.rr.txt\n'
p1683
aS'rr_data/e00678.rr.txt\n'
p1684
aS'rr_data/e01481.rr.txt\n'
p1685
aS'rr_data/e00729.rr.txt\n'
p1686
aS'rr_data/e01782.rr.txt\n'
p1687
aS'rr_data/e01607.rr.txt\n'
p1688
aS'rr_data/b0064.rr.txt\n'
p1689
aS'rr_data/a0204.rr.txt\n'
p1690
aS'rr_data/e01225.rr.txt\n'
p1691
aS'rr_data/e00476.rr.txt\n'
p1692
aS'rr_data/e01802.rr.txt\n'
p1693
aS'rr_data/a0407.rr.txt\n'
p1694
aS'rr_data/b0440.rr.txt\n'
p1695
aS'rr_data/e01420.rr.txt\n'
p1696
aS'rr_data/e01152.rr.txt\n'
p1697
aS'rr_data/b0328.rr.txt\n'
p1698
aS'rr_data/a0231.rr.txt\n'
p1699
aS'rr_data/b0401.rr.txt\n'
p1700
aS'rr_data/e00997.rr.txt\n'
p1701
aS'rr_data/b0031.rr.txt\n'
p1702
aS'rr_data/a0408.rr.txt\n'
p1703
aS'rr_data/e01986.rr.txt\n'
p1704
aS'rr_data/a0241.rr.txt\n'
p1705
aS'rr_data/e01233.rr.txt\n'
p1706
aS'rr_data/e01230.rr.txt\n'
p1707
aS'rr_data/e00101.rr.txt\n'
p1708
aS'rr_data/b0448.rr.txt\n'
p1709
aS'rr_data/b0274.rr.txt\n'
p1710
aS'rr_data/e01080.rr.txt\n'
p1711
aS'rr_data/e01608.rr.txt\n'
p1712
aS'rr_data/e01789.rr.txt\n'
p1713
aS'rr_data/b0012.rr.txt\n'
p1714
aS'rr_data/e01816.rr.txt\n'
p1715
aS'rr_data/e00597.rr.txt\n'
p1716
aS'rr_data/e00369.rr.txt\n'
p1717
aS'rr_data/e00852.rr.txt\n'
p1718
aS'rr_data/b0352.rr.txt\n'
p1719
aS'rr_data/e01449.rr.txt\n'
p1720
aS'rr_data/f0062.rr.txt\n'
p1721
aS'rr_data/e01211.rr.txt\n'
p1722
aS'rr_data/e01788.rr.txt\n'
p1723
aS'rr_data/e00970.rr.txt\n'
p1724
aS'rr_data/e01451.rr.txt\n'
p1725
aS'rr_data/e02113.rr.txt\n'
p1726
aS'rr_data/e01729.rr.txt\n'
p1727
aS'rr_data/e01682.rr.txt\n'
p1728
aS'rr_data/e00497.rr.txt\n'
p1729
aS'rr_data/e00422.rr.txt\n'
p1730
aS'rr_data/e00791.rr.txt\n'
p1731
aS'rr_data/b0185.rr.txt\n'
p1732
aS'rr_data/e00987.rr.txt\n'
p1733
aS'rr_data/e01723.rr.txt\n'
p1734
aS'rr_data/e00521.rr.txt\n'
p1735
aS'rr_data/e02095.rr.txt\n'
p1736
aS'rr_data/b0230.rr.txt\n'
p1737
aS'rr_data/e01535.rr.txt\n'
p1738
aS'rr_data/e00056.rr.txt\n'
p1739
aS'rr_data/e00106.rr.txt\n'
p1740
aS'rr_data/e01744.rr.txt\n'
p1741
aS'rr_data/b0220.rr.txt\n'
p1742
aS'rr_data/e01959.rr.txt\n'
p1743
aS'rr_data/e00016.rr.txt\n'
p1744
aS'rr_data/b0485.rr.txt\n'
p1745
aS'rr_data/e00302.rr.txt\n'
p1746
aS'rr_data/e00073.rr.txt\n'
p1747
aS'rr_data/e00861.rr.txt\n'
p1748
aS'rr_data/e00756.rr.txt\n'
p1749
aS'rr_data/b0309.rr.txt\n'
p1750
aS'rr_data/e01587.rr.txt\n'
p1751
aS'rr_data/e01749.rr.txt\n'
p1752
aS'rr_data/e01380.rr.txt\n'
p1753
aS'rr_data/d0006.rr.txt\n'
p1754
aS'rr_data/b0212.rr.txt\n'
p1755
aS'rr_data/e01128.rr.txt\n'
p1756
aS'rr_data/a0211.rr.txt\n'
p1757
aS'rr_data/e00402.rr.txt\n'
p1758
aS'rr_data/b0290.rr.txt\n'
p1759
aS'rr_data/e01219.rr.txt\n'
p1760
aS'rr_data/b0356.rr.txt\n'
p1761
aS'rr_data/e01872.rr.txt\n'
p1762
aS'rr_data/e01656.rr.txt\n'
p1763
aS'rr_data/e01633.rr.txt\n'
p1764
aS'rr_data/e00436.rr.txt\n'
p1765
aS'rr_data/b0481.rr.txt\n'
p1766
aS'rr_data/e01593.rr.txt\n'
p1767
aS'rr_data/e00170.rr.txt\n'
p1768
aS'rr_data/e01574.rr.txt\n'
p1769
aS'rr_data/e01253.rr.txt\n'
p1770
aS'rr_data/e01430.rr.txt\n'
p1771
aS'rr_data/a0154.rr.txt\n'
p1772
aS'rr_data/e02057.rr.txt\n'
p1773
aS'rr_data/e01369.rr.txt\n'
p1774
aS'rr_data/e00338.rr.txt\n'
p1775
aS'rr_data/e01585.rr.txt\n'
p1776
aS'rr_data/e01266.rr.txt\n'
p1777
aS'rr_data/e00813.rr.txt\n'
p1778
aS'rr_data/e01443.rr.txt\n'
p1779
aS'rr_data/a0287.rr.txt\n'
p1780
aS'rr_data/b0193.rr.txt\n'
p1781
aS'rr_data/a0161.rr.txt\n'
p1782
aS'rr_data/e00695.rr.txt\n'
p1783
aS'rr_data/a0184.rr.txt\n'
p1784
aS'rr_data/b0286.rr.txt\n'
p1785
aS'rr_data/e01474.rr.txt\n'
p1786
aS'rr_data/e01554.rr.txt\n'
p1787
aS'rr_data/b0410.rr.txt\n'
p1788
aS'rr_data/e00690.rr.txt\n'
p1789
aS'rr_data/e01429.rr.txt\n'
p1790
aS'rr_data/e01841.rr.txt\n'
p1791
aS'rr_data/b0296.rr.txt\n'
p1792
aS'rr_data/e01314.rr.txt\n'
p1793
aS'rr_data/e00081.rr.txt\n'
p1794
aS'rr_data/e01154.rr.txt\n'
p1795
aS'rr_data/e01076.rr.txt\n'
p1796
aS'rr_data/e01005.rr.txt\n'
p1797
aS'rr_data/e00860.rr.txt\n'
p1798
aS'rr_data/e00190.rr.txt\n'
p1799
aS'rr_data/e01498.rr.txt\n'
p1800
aS'rr_data/e01938.rr.txt\n'
p1801
aS'rr_data/e02011.rr.txt\n'
p1802
aS'rr_data/e00281.rr.txt\n'
p1803
aS'rr_data/e00411.rr.txt\n'
p1804
aS'rr_data/e00835.rr.txt\n'
p1805
aS'rr_data/e00698.rr.txt\n'
p1806
aS'rr_data/e01303.rr.txt\n'
p1807
aS'rr_data/b0187.rr.txt\n'
p1808
aS'rr_data/e00064.rr.txt\n'
p1809
aS'rr_data/b0381.rr.txt\n'
p1810
aS'rr_data/e01007.rr.txt\n'
p1811
aS'rr_data/e01229.rr.txt\n'
p1812
aS'rr_data/b0281.rr.txt\n'
p1813
aS'rr_data/e00452.rr.txt\n'
p1814
aS'rr_data/e00181.rr.txt\n'
p1815
aS'rr_data/e01456.rr.txt\n'
p1816
aS'rr_data/e00078.rr.txt\n'
p1817
aS'rr_data/d0007.rr.txt\n'
p1818
aS'rr_data/e01254.rr.txt\n'
p1819
aS'rr_data/e00334.rr.txt\n'
p1820
aS'rr_data/e01836.rr.txt\n'
p1821
aS'rr_data/e02098.rr.txt\n'
p1822
aS'rr_data/e01294.rr.txt\n'
p1823
aS'rr_data/b0214.rr.txt\n'
p1824
aS'rr_data/e00652.rr.txt\n'
p1825
aS'rr_data/b0426.rr.txt\n'
p1826
aS'rr_data/e01873.rr.txt\n'
p1827
aS'rr_data/e00643.rr.txt\n'
p1828
aS'rr_data/e00659.rr.txt\n'
p1829
aS'rr_data/e00133.rr.txt\n'
p1830
aS'rr_data/b0201.rr.txt\n'
p1831
aS'rr_data/a0086.rr.txt\n'
p1832
aS'rr_data/e00531.rr.txt\n'
p1833
aS'rr_data/e00431.rr.txt\n'
p1834
aS'rr_data/e00529.rr.txt\n'
p1835
aS'rr_data/b0370.rr.txt\n'
p1836
aS'rr_data/e01070.rr.txt\n'
p1837
aS'rr_data/e02008.rr.txt\n'
p1838
aS'rr_data/e00955.rr.txt\n'
p1839
aS'rr_data/e01240.rr.txt\n'
p1840
aS'rr_data/e00599.rr.txt\n'
p1841
aS'rr_data/e00337.rr.txt\n'
p1842
aS'rr_data/e01101.rr.txt\n'
p1843
aS'rr_data/e01135.rr.txt\n'
p1844
aS'rr_data/e01325.rr.txt\n'
p1845
aS'rr_data/e01207.rr.txt\n'
p1846
aS'rr_data/e01860.rr.txt\n'
p1847
aS'rr_data/e01213.rr.txt\n'
p1848
aS'rr_data/e01056.rr.txt\n'
p1849
aS'rr_data/e01193.rr.txt\n'
p1850
aS'rr_data/e00649.rr.txt\n'
p1851
aS'rr_data/e01941.rr.txt\n'
p1852
aS'rr_data/e01694.rr.txt\n'
p1853
aS'rr_data/e01027.rr.txt\n'
p1854
aS'rr_data/e00644.rr.txt\n'
p1855
aS'rr_data/e01954.rr.txt\n'
p1856
aS'rr_data/e00602.rr.txt\n'
p1857
aS'rr_data/e00137.rr.txt\n'
p1858
aS'rr_data/e01933.rr.txt\n'
p1859
aS'rr_data/a0027.rr.txt\n'
p1860
aS'rr_data/e01258.rr.txt\n'
p1861
aS'rr_data/f0113.rr.txt\n'
p1862
aS'rr_data/e00822.rr.txt\n'
p1863
aS'rr_data/e01691.rr.txt\n'
p1864
aS'rr_data/e00363.rr.txt\n'
p1865
aS'rr_data/e00308.rr.txt\n'
p1866
aS'rr_data/e00384.rr.txt\n'
p1867
aS'rr_data/e00074.rr.txt\n'
p1868
aS'rr_data/e00767.rr.txt\n'
p1869
aS'rr_data/f0106.rr.txt\n'
p1870
aS'rr_data/e00185.rr.txt\n'
p1871
aS'rr_data/b0391.rr.txt\n'
p1872
aS'rr_data/e01779.rr.txt\n'
p1873
aS'rr_data/e01181.rr.txt\n'
p1874
aS'rr_data/e00063.rr.txt\n'
p1875
aS'rr_data/e01942.rr.txt\n'
p1876
aS'rr_data/e00549.rr.txt\n'
p1877
aS'rr_data/e00115.rr.txt\n'
p1878
aS'rr_data/e01820.rr.txt\n'
p1879
aS'rr_data/e00314.rr.txt\n'
p1880
aS'rr_data/e00488.rr.txt\n'
p1881
aS'rr_data/e00256.rr.txt\n'
p1882
aS'rr_data/e02069.rr.txt\n'
p1883
aS'rr_data/e01418.rr.txt\n'
p1884
aS'rr_data/e01709.rr.txt\n'
p1885
aS'rr_data/b0240.rr.txt\n'
p1886
aS'rr_data/e01567.rr.txt\n'
p1887
aS'rr_data/b0388.rr.txt\n'
p1888
aS'rr_data/e01734.rr.txt\n'
p1889
aS'rr_data/a0293.rr.txt\n'
p1890
aS'rr_data/b0458.rr.txt\n'
p1891
aS'rr_data/e02124.rr.txt\n'
p1892
aS'rr_data/e02066.rr.txt\n'
p1893
aS'rr_data/e01542.rr.txt\n'
p1894
aS'rr_data/e00897.rr.txt\n'
p1895
aS'rr_data/e01199.rr.txt\n'
p1896
aS'rr_data/e01274.rr.txt\n'
p1897
aS'rr_data/e01864.rr.txt\n'
p1898
aS'rr_data/e00344.rr.txt\n'
p1899
aS'rr_data/e00771.rr.txt\n'
p1900
aS'rr_data/e00351.rr.txt\n'
p1901
aS'rr_data/e00858.rr.txt\n'
p1902
aS'rr_data/e01976.rr.txt\n'
p1903
aS'rr_data/e00873.rr.txt\n'
p1904
aS'rr_data/b0014.rr.txt\n'
p1905
aS'rr_data/e00683.rr.txt\n'
p1906
aS'rr_data/d0030.rr.txt\n'
p1907
aS'rr_data/e01703.rr.txt\n'
p1908
aS'rr_data/e01772.rr.txt\n'
p1909
aS'rr_data/e01837.rr.txt\n'
p1910
aS'rr_data/e00189.rr.txt\n'
p1911
aS'rr_data/e01386.rr.txt\n'
p1912
aS'rr_data/e00834.rr.txt\n'
p1913
aS'rr_data/e00495.rr.txt\n'
p1914
aS'rr_data/e01695.rr.txt\n'
p1915
aS'rr_data/e00747.rr.txt\n'
p1916
aS'rr_data/e01523.rr.txt\n'
p1917
aS'rr_data/e00920.rr.txt\n'
p1918
aS'rr_data/e01123.rr.txt\n'
p1919
aS'rr_data/b0182.rr.txt\n'
p1920
aS'rr_data/b0005.rr.txt\n'
p1921
aS'rr_data/e00287.rr.txt\n'
p1922
aS'rr_data/e01339.rr.txt\n'
p1923
aS'rr_data/e00532.rr.txt\n'
p1924
aS'rr_data/e00836.rr.txt\n'
p1925
aS'rr_data/f0076.rr.txt\n'
p1926
aS'rr_data/e01061.rr.txt\n'
p1927
aS'rr_data/e00067.rr.txt\n'
p1928
aS'rr_data/e00945.rr.txt\n'
p1929
aS'rr_data/e01422.rr.txt\n'
p1930
aS'rr_data/e01818.rr.txt\n'
p1931
aS'rr_data/e01143.rr.txt\n'
p1932
aS'rr_data/e01087.rr.txt\n'
p1933
aS'rr_data/e01022.rr.txt\n'
p1934
aS'rr_data/e00891.rr.txt\n'
p1935
aS'rr_data/e00761.rr.txt\n'
p1936
aS'rr_data/f0073.rr.txt\n'
p1937
aS'rr_data/b0050.rr.txt\n'
p1938
aS'rr_data/e00991.rr.txt\n'
p1939
aS'rr_data/e01319.rr.txt\n'
p1940
aS'rr_data/e00636.rr.txt\n'
p1941
aS'rr_data/e01890.rr.txt\n'
p1942
aS'rr_data/e01390.rr.txt\n'
p1943
aS'rr_data/e00676.rr.txt\n'
p1944
aS'rr_data/e01343.rr.txt\n'
p1945
aS'rr_data/e00445.rr.txt\n'
p1946
aS'rr_data/b0225.rr.txt\n'
p1947
aS'rr_data/e01032.rr.txt\n'
p1948
aS'rr_data/e01984.rr.txt\n'
p1949
aS'rr_data/e00613.rr.txt\n'
p1950
aS'rr_data/b0456.rr.txt\n'
p1951
aS'rr_data/b0234.rr.txt\n'
p1952
aS'rr_data/e00854.rr.txt\n'
p1953
aS'rr_data/a0019.rr.txt\n'
p1954
aS'rr_data/b0260.rr.txt\n'
p1955
aS'rr_data/e01991.rr.txt\n'
p1956
aS'rr_data/e02072.rr.txt\n'
p1957
aS'rr_data/e00876.rr.txt\n'
p1958
aS'rr_data/f0051.rr.txt\n'
p1959
aS'rr_data/e01866.rr.txt\n'
p1960
aS'rr_data/e00904.rr.txt\n'
p1961
aS'rr_data/e00744.rr.txt\n'
p1962
aS'rr_data/b0072.rr.txt\n'
p1963
aS'rr_data/e00148.rr.txt\n'
p1964
aS'rr_data/e01387.rr.txt\n'
p1965
aS'rr_data/e01571.rr.txt\n'
p1966
aS'rr_data/e00213.rr.txt\n'
p1967
aS'rr_data/e00968.rr.txt\n'
p1968
aS'rr_data/e00818.rr.txt\n'
p1969
aS'rr_data/e00778.rr.txt\n'
p1970
aS'rr_data/b0348.rr.txt\n'
p1971
aS'rr_data/b0424.rr.txt\n'
p1972
aS'rr_data/e01944.rr.txt\n'
p1973
aS'rr_data/e01945.rr.txt\n'
p1974
aS'rr_data/b0331.rr.txt\n'
p1975
aS'rr_data/b0211.rr.txt\n'
p1976
aS'rr_data/a0310.rr.txt\n'
p1977
aS'rr_data/e00753.rr.txt\n'
p1978
aS'rr_data/e00240.rr.txt\n'
p1979
aS'rr_data/d0001.rr.txt\n'
p1980
aS'rr_data/e02103.rr.txt\n'
p1981
aS'rr_data/b0462.rr.txt\n'
p1982
aS'rr_data/e00303.rr.txt\n'
p1983
aS'rr_data/e00419.rr.txt\n'
p1984
aS'rr_data/e00243.rr.txt\n'
p1985
aS'rr_data/a0334.rr.txt\n'
p1986
aS'rr_data/e01194.rr.txt\n'
p1987
aS'rr_data/e02026.rr.txt\n'
p1988
aS'rr_data/e00397.rr.txt\n'
p1989
aS'rr_data/a0301.rr.txt\n'
p1990
aS'rr_data/e00412.rr.txt\n'
p1991
aS'rr_data/e00938.rr.txt\n'
p1992
aS'rr_data/e00722.rr.txt\n'
p1993
aS'rr_data/e01011.rr.txt\n'
p1994
aS'rr_data/e01721.rr.txt\n'
p1995
aS'rr_data/e00274.rr.txt\n'
p1996
aS'rr_data/e00717.rr.txt\n'
p1997
aS'rr_data/e01239.rr.txt\n'
p1998
aS'rr_data/e01460.rr.txt\n'
p1999
aS'rr_data/e01797.rr.txt\n'
p2000
aS'rr_data/e01518.rr.txt\n'
p2001
aS'rr_data/f0038.rr.txt\n'
p2002
aS'rr_data/b0255.rr.txt\n'
p2003
aS'rr_data/e01216.rr.txt\n'
p2004
aS'rr_data/e01265.rr.txt\n'
p2005
aS'rr_data/b0124.rr.txt\n'
p2006
aS'rr_data/e01735.rr.txt\n'
p2007
aS'rr_data/e00021.rr.txt\n'
p2008
aS'rr_data/e00103.rr.txt\n'
p2009
aS'rr_data/e00423.rr.txt\n'
p2010
aS'rr_data/e00460.rr.txt\n'
p2011
aS'rr_data/b0459.rr.txt\n'
p2012
aS'rr_data/e02105.rr.txt\n'
p2013
aS'rr_data/e01231.rr.txt\n'
p2014
aS'rr_data/e01977.rr.txt\n'
p2015
aS'rr_data/e00889.rr.txt\n'
p2016
aS'rr_data/e00418.rr.txt\n'
p2017
aS'rr_data/e00604.rr.txt\n'
p2018
aS'rr_data/e01345.rr.txt\n'
p2019
aS'rr_data/b0121.rr.txt\n'
p2020
aS'rr_data/e01517.rr.txt\n'
p2021
aS'rr_data/e01267.rr.txt\n'
p2022
aS'rr_data/e01853.rr.txt\n'
p2023
aS'rr_data/e00415.rr.txt\n'
p2024
aS'rr_data/b0135.rr.txt\n'
p2025
aS'rr_data/e00618.rr.txt\n'
p2026
aS'rr_data/e00905.rr.txt\n'
p2027
aS'rr_data/e00726.rr.txt\n'
p2028
aS'rr_data/e01166.rr.txt\n'
p2029
aS'rr_data/e01512.rr.txt\n'
p2030
aS'rr_data/b0323.rr.txt\n'
p2031
aS'rr_data/b0074.rr.txt\n'
p2032
aS'rr_data/e01949.rr.txt\n'
p2033
aS'rr_data/d0037.rr.txt\n'
p2034
aS'rr_data/e01204.rr.txt\n'
p2035
aS'rr_data/e01964.rr.txt\n'
p2036
aS'rr_data/b0061.rr.txt\n'
p2037
aS'rr_data/e00260.rr.txt\n'
p2038
aS'rr_data/a0330.rr.txt\n'
p2039
aS'rr_data/b0447.rr.txt\n'
p2040
aS'rr_data/e01063.rr.txt\n'
p2041
aS'rr_data/e00959.rr.txt\n'
p2042
aS'rr_data/e01350.rr.txt\n'
p2043
aS'rr_data/e02035.rr.txt\n'
p2044
aS'rr_data/e01092.rr.txt\n'
p2045
aS'rr_data/b0160.rr.txt\n'
p2046
aS'rr_data/e01445.rr.txt\n'
p2047
aS'rr_data/e00296.rr.txt\n'
p2048
aS'rr_data/e01210.rr.txt\n'
p2049
aS'rr_data/e00856.rr.txt\n'
p2050
aS'rr_data/e00883.rr.txt\n'
p2051
aS'rr_data/b0416.rr.txt\n'
p2052
aS'rr_data/e01176.rr.txt\n'
p2053
aS'rr_data/e02028.rr.txt\n'
p2054
aS'rr_data/e01329.rr.txt\n'
p2055
aS'rr_data/e02005.rr.txt\n'
p2056
aS'rr_data/e01934.rr.txt\n'
p2057
aS'rr_data/e01177.rr.txt\n'
p2058
aS'rr_data/e00371.rr.txt\n'
p2059
aS'rr_data/e00800.rr.txt\n'
p2060
aS'rr_data/e01059.rr.txt\n'
p2061
aS'rr_data/e01677.rr.txt\n'
p2062
aS'rr_data/e01139.rr.txt\n'
p2063
aS'rr_data/e01236.rr.txt\n'
p2064
aS'rr_data/e01419.rr.txt\n'
p2065
aS'rr_data/e00520.rr.txt\n'
p2066
aS'rr_data/e00890.rr.txt\n'
p2067
aS'rr_data/e01946.rr.txt\n'
p2068
aS'rr_data/e01750.rr.txt\n'
p2069
aS'rr_data/e00666.rr.txt\n'
p2070
aS'rr_data/e01366.rr.txt\n'
p2071
aS'rr_data/e00444.rr.txt\n'
p2072
aS'rr_data/a0139.rr.txt\n'
p2073
aS'rr_data/e01203.rr.txt\n'
p2074
aS'rr_data/b0142.rr.txt\n'
p2075
aS'rr_data/a0106.rr.txt\n'
p2076
aS'rr_data/e00044.rr.txt\n'
p2077
aS'rr_data/e00937.rr.txt\n'
p2078
aS'rr_data/e00183.rr.txt\n'
p2079
aS'rr_data/b0379.rr.txt\n'
p2080
aS'rr_data/e01292.rr.txt\n'
p2081
aS'rr_data/e00164.rr.txt\n'
p2082
aS'rr_data/e00614.rr.txt\n'
p2083
aS'rr_data/e01588.rr.txt\n'
p2084
aS'rr_data/e02099.rr.txt\n'
p2085
aS'rr_data/b0131.rr.txt\n'
p2086
aS'rr_data/e01283.rr.txt\n'
p2087
aS'rr_data/e02094.rr.txt\n'
p2088
aS'rr_data/e01119.rr.txt\n'
p2089
aS'rr_data/b0477.rr.txt\n'
p2090
aS'rr_data/b0219.rr.txt\n'
p2091
aS'rr_data/e01516.rr.txt\n'
p2092
aS'rr_data/e01270.rr.txt\n'
p2093
aS'rr_data/e01332.rr.txt\n'
p2094
aS'rr_data/e01936.rr.txt\n'
p2095
aS'rr_data/e01614.rr.txt\n'
p2096
aS'rr_data/d0041.rr.txt\n'
p2097
aS'rr_data/e00564.rr.txt\n'
p2098
aS'rr_data/e01965.rr.txt\n'
p2099
aS'rr_data/e01169.rr.txt\n'
p2100
aS'rr_data/b0020.rr.txt\n'
p2101
aS'rr_data/e00966.rr.txt\n'
p2102
aS'rr_data/e00884.rr.txt\n'
p2103
aS'rr_data/b0080.rr.txt\n'
p2104
aS'rr_data/b0128.rr.txt\n'
p2105
aS'rr_data/e01312.rr.txt\n'
p2106
aS'rr_data/e00383.rr.txt\n'
p2107
aS'rr_data/e01506.rr.txt\n'
p2108
aS'rr_data/e01892.rr.txt\n'
p2109
aS'rr_data/e01707.rr.txt\n'
p2110
aS'rr_data/b0478.rr.txt\n'
p2111
aS'rr_data/e02115.rr.txt\n'
p2112
aS'rr_data/e00585.rr.txt\n'
p2113
aS'rr_data/e02034.rr.txt\n'
p2114
aS'rr_data/e00043.rr.txt\n'
p2115
aS'rr_data/e00516.rr.txt\n'
p2116
aS'rr_data/f0108.rr.txt\n'
p2117
aS'rr_data/f0028.rr.txt\n'
p2118
aS'rr_data/e00405.rr.txt\n'
p2119
aS'rr_data/e00354.rr.txt\n'
p2120
aS'rr_data/e00872.rr.txt\n'
p2121
aS'rr_data/b0088.rr.txt\n'
p2122
aS'rr_data/e00247.rr.txt\n'
p2123
aS'rr_data/e00448.rr.txt\n'
p2124
aS'rr_data/e01112.rr.txt\n'
p2125
aS'rr_data/e00972.rr.txt\n'
p2126
aS'rr_data/e02021.rr.txt\n'
p2127
aS'rr_data/e00311.rr.txt\n'
p2128
aS'rr_data/d0045.rr.txt\n'
p2129
aS'rr_data/e00309.rr.txt\n'
p2130
aS'rr_data/b0127.rr.txt\n'
p2131
aS'rr_data/e00050.rr.txt\n'
p2132
aS'rr_data/e01783.rr.txt\n'
p2133
aS'rr_data/f0044.rr.txt\n'
p2134
aS'rr_data/e02007.rr.txt\n'
p2135
aS'rr_data/e00420.rr.txt\n'
p2136
aS'rr_data/e00027.rr.txt\n'
p2137
aS'rr_data/e00865.rr.txt\n'
p2138
aS'rr_data/e01269.rr.txt\n'
p2139
aS'rr_data/b0377.rr.txt\n'
p2140
aS'rr_data/b0407.rr.txt\n'
p2141
aS'rr_data/b0473.rr.txt\n'
p2142
aS'rr_data/e00527.rr.txt\n'
p2143
aS'rr_data/e00607.rr.txt\n'
p2144
aS'rr_data/e01969.rr.txt\n'
p2145
aS'rr_data/e00450.rr.txt\n'
p2146
aS'rr_data/e01775.rr.txt\n'
p2147
aS'rr_data/e01242.rr.txt\n'
p2148
aS'rr_data/e02104.rr.txt\n'
p2149
aS'rr_data/e00583.rr.txt\n'
p2150
aS'rr_data/e00957.rr.txt\n'
p2151
aS'rr_data/e00960.rr.txt\n'
p2152
aS'rr_data/e00507.rr.txt\n'
p2153
aS'rr_data/e00501.rr.txt\n'
p2154
aS'rr_data/e01974.rr.txt\n'
p2155
aS'rr_data/e01349.rr.txt\n'
p2156
aS'rr_data/e01921.rr.txt\n'
p2157
aS'rr_data/e02060.rr.txt\n'
p2158
aS'rr_data/e01659.rr.txt\n'
p2159
aS'rr_data/b0372.rr.txt\n'
p2160
aS'rr_data/e01918.rr.txt\n'
p2161
aS'rr_data/b0045.rr.txt\n'
p2162
aS'rr_data/e01809.rr.txt\n'
p2163
aS'rr_data/e01252.rr.txt\n'
p2164
aS'rr_data/e01736.rr.txt\n'
p2165
aS'rr_data/e01250.rr.txt\n'
p2166
aS'rr_data/b0351.rr.txt\n'
p2167
aS'rr_data/e01348.rr.txt\n'
p2168
aS'rr_data/e02003.rr.txt\n'
p2169
aS'rr_data/e01947.rr.txt\n'
p2170
aS'rr_data/e00831.rr.txt\n'
p2171
aS'rr_data/e01406.rr.txt\n'
p2172
aS'rr_data/e01036.rr.txt\n'
p2173
aS'rr_data/e01673.rr.txt\n'
p2174
aS'rr_data/e00346.rr.txt\n'
p2175
aS'rr_data/e01671.rr.txt\n'
p2176
aS'rr_data/e00733.rr.txt\n'
p2177
aS'rr_data/e00112.rr.txt\n'
p2178
aS'rr_data/e00947.rr.txt\n'
p2179
aS'rr_data/b0209.rr.txt\n'
p2180
aS'rr_data/b0301.rr.txt\n'
p2181
aS'rr_data/e01625.rr.txt\n'
p2182
aS'rr_data/e00732.rr.txt\n'
p2183
aS'rr_data/e01979.rr.txt\n'
p2184
aS'rr_data/e02058.rr.txt\n'
p2185
aS'rr_data/e01295.rr.txt\n'
p2186
aS'rr_data/e00054.rr.txt\n'
p2187
aS'rr_data/e00518.rr.txt\n'
p2188
aS'rr_data/e00774.rr.txt\n'
p2189
aS'rr_data/b0165.rr.txt\n'
p2190
aS'rr_data/e01440.rr.txt\n'
p2191
aS'rr_data/a0185.rr.txt\n'
p2192
aS'rr_data/e00515.rr.txt\n'
p2193
aS'rr_data/b0191.rr.txt\n'
p2194
aS'rr_data/b0071.rr.txt\n'
p2195
aS'rr_data/e01649.rr.txt\n'
p2196
aS'rr_data/e00576.rr.txt\n'
p2197
aS'rr_data/e01975.rr.txt\n'
p2198
aS'rr_data/e00903.rr.txt\n'
p2199
aS'rr_data/e00759.rr.txt\n'
p2200
aS'rr_data/e00349.rr.txt\n'
p2201
aS'rr_data/e01235.rr.txt\n'
p2202
aS'rr_data/e00117.rr.txt\n'
p2203
aS'rr_data/e01377.rr.txt\n'
p2204
aS'rr_data/e00257.rr.txt\n'
p2205
aS'rr_data/e02050.rr.txt\n'
p2206
aS'rr_data/e02127.rr.txt\n'
p2207
aS'rr_data/e01504.rr.txt\n'
p2208
aS'rr_data/e00481.rr.txt\n'
p2209
aS'rr_data/e00177.rr.txt\n'
p2210
aS'rr_data/e01990.rr.txt\n'
p2211
aS'rr_data/e00563.rr.txt\n'
p2212
aS'rr_data/e01379.rr.txt\n'
p2213
aS'rr_data/e00100.rr.txt\n'
p2214
aS'rr_data/e00014.rr.txt\n'
p2215
aS'rr_data/e02093.rr.txt\n'
p2216
aS'rr_data/e00355.rr.txt\n'
p2217
aS'rr_data/f0049.rr.txt\n'
p2218
aS'rr_data/a0409.rr.txt\n'
p2219
aS'rr_data/f0100.rr.txt\n'
p2220
aS'rr_data/e01019.rr.txt\n'
p2221
aS'rr_data/b0188.rr.txt\n'
p2222
aS'rr_data/e01278.rr.txt\n'
p2223
aS'rr_data/e02123.rr.txt\n'
p2224
aS'rr_data/b0483.rr.txt\n'
p2225
aS'rr_data/e00993.rr.txt\n'
p2226
aS'rr_data/b0035.rr.txt\n'
p2227
aS'rr_data/e01305.rr.txt\n'
p2228
aS'rr_data/e01124.rr.txt\n'
p2229
aS'rr_data/e01197.rr.txt\n'
p2230
aS'rr_data/e00254.rr.txt\n'
p2231
aS'rr_data/a0304.rr.txt\n'
p2232
aS'rr_data/e01642.rr.txt\n'
p2233
aS'rr_data/e01650.rr.txt\n'
p2234
aS'rr_data/e01427.rr.txt\n'
p2235
aS'rr_data/e00641.rr.txt\n'
p2236
aS'rr_data/a0049.rr.txt\n'
p2237
aS'rr_data/b0431.rr.txt\n'
p2238
aS'rr_data/e01972.rr.txt\n'
p2239
aS'rr_data/e01297.rr.txt\n'
p2240
aS'rr_data/e01710.rr.txt\n'
p2241
aS'rr_data/e02000.rr.txt\n'
p2242
aS'rr_data/e01195.rr.txt\n'
p2243
aS'rr_data/e01618.rr.txt\n'
p2244
aS'rr_data/b0337.rr.txt\n'
p2245
aS'rr_data/e00107.rr.txt\n'
p2246
aS'rr_data/e01121.rr.txt\n'
p2247
aS'rr_data/e00141.rr.txt\n'
p2248
aS'rr_data/e00010.rr.txt\n'
p2249
aS'rr_data/e00707.rr.txt\n'
p2250
aS'rr_data/a0032.rr.txt\n'
p2251
aS'rr_data/e00999.rr.txt\n'
p2252
aS'rr_data/e00797.rr.txt\n'
p2253
aS'rr_data/d0016.rr.txt\n'
p2254
aS'rr_data/e00662.rr.txt\n'
p2255
aS'rr_data/e01106.rr.txt\n'
p2256
aS'rr_data/e02131.rr.txt\n'
p2257
aS'rr_data/b0044.rr.txt\n'
p2258
aS'rr_data/e01616.rr.txt\n'
p2259
aS'rr_data/e00253.rr.txt\n'
p2260
aS'rr_data/e01764.rr.txt\n'
p2261
aS'rr_data/e00348.rr.txt\n'
p2262
aS'rr_data/e00036.rr.txt\n'
p2263
aS'rr_data/e01122.rr.txt\n'
p2264
aS'rr_data/b0489.rr.txt\n'
p2265
aS'rr_data/a0178.rr.txt\n'
p2266
aS'rr_data/e02116.rr.txt\n'
p2267
aS'rr_data/e02017.rr.txt\n'
p2268
aS'rr_data/e01378.rr.txt\n'
p2269
aS'rr_data/e01874.rr.txt\n'
p2270
aS'rr_data/b0463.rr.txt\n'
p2271
aS'rr_data/e00838.rr.txt\n'
p2272
aS'rr_data/a0193.rr.txt\n'
p2273
aS'rr_data/b0324.rr.txt\n'
p2274
aS'rr_data/e00582.rr.txt\n'
p2275
aS'rr_data/e01130.rr.txt\n'
p2276
aS'rr_data/e01634.rr.txt\n'
p2277
aS'rr_data/e01871.rr.txt\n'
p2278
aS'rr_data/e01003.rr.txt\n'
p2279
aS'rr_data/a0359.rr.txt\n'
p2280
aS'rr_data/e00209.rr.txt\n'
p2281
aS'rr_data/e00222.rr.txt\n'
p2282
aS'rr_data/e00236.rr.txt\n'
p2283
aS'rr_data/b0213.rr.txt\n'
p2284
aS'rr_data/e00545.rr.txt\n'
p2285
aS'rr_data/a0210.rr.txt\n'
p2286
aS'rr_data/e00639.rr.txt\n'
p2287
aS'rr_data/e01826.rr.txt\n'
p2288
aS'rr_data/e01549.rr.txt\n'
p2289
aS'rr_data/e01537.rr.txt\n'
p2290
aS'rr_data/e01291.rr.txt\n'
p2291
aS'rr_data/e00485.rr.txt\n'
p2292
aS'rr_data/b0079.rr.txt\n'
p2293
aS'rr_data/e01186.rr.txt\n'
p2294
aS'rr_data/e01830.rr.txt\n'
p2295
aS'rr_data/e01094.rr.txt\n'
p2296
aS'rr_data/b0282.rr.txt\n'
p2297
aS'rr_data/e00696.rr.txt\n'
p2298
aS'rr_data/e00592.rr.txt\n'
p2299
aS'rr_data/e00900.rr.txt\n'
p2300
aS'rr_data/e00830.rr.txt\n'
p2301
aS'rr_data/e01308.rr.txt\n'
p2302
aS'rr_data/e01540.rr.txt\n'
p2303
aS'rr_data/e01600.rr.txt\n'
p2304
aS'rr_data/e00163.rr.txt\n'
p2305
aS'rr_data/b0098.rr.txt\n'
p2306
aS'rr_data/e01884.rr.txt\n'
p2307
aS'rr_data/b0173.rr.txt\n'
p2308
aS'rr_data/b0118.rr.txt\n'
p2309
aS'rr_data/e00153.rr.txt\n'
p2310
aS'rr_data/e01439.rr.txt\n'
p2311
aS'rr_data/e00623.rr.txt\n'
p2312
aS'rr_data/e01468.rr.txt\n'
p2313
aS'rr_data/b0105.rr.txt\n'
p2314
aS'rr_data/e01891.rr.txt\n'
p2315
aS'rr_data/e01004.rr.txt\n'
p2316
aS'rr_data/e00571.rr.txt\n'
p2317
aS'rr_data/e01485.rr.txt\n'
p2318
aS'rr_data/e01861.rr.txt\n'
p2319
aS'rr_data/e02073.rr.txt\n'
p2320
aS'rr_data/e00630.rr.txt\n'
p2321
aS'rr_data/e00511.rr.txt\n'
p2322
aS'rr_data/e02039.rr.txt\n'
p2323
aS'rr_data/e00647.rr.txt\n'
p2324
aS'rr_data/e00291.rr.txt\n'
p2325
aS'rr_data/e00244.rr.txt\n'
p2326
aS'rr_data/e01244.rr.txt\n'
p2327
aS'rr_data/e01322.rr.txt\n'
p2328
aS'rr_data/e01158.rr.txt\n'
p2329
aS'rr_data/a0299.rr.txt\n'
p2330
aS'rr_data/e01477.rr.txt\n'
p2331
aS'rr_data/b0486.rr.txt\n'
p2332
aS'rr_data/e01878.rr.txt\n'
p2333
aS'rr_data/e01174.rr.txt\n'
p2334
aS'rr_data/e01434.rr.txt\n'
p2335
aS'rr_data/b0454.rr.txt\n'
p2336
aS'rr_data/e01726.rr.txt\n'
p2337
aS'rr_data/e00128.rr.txt\n'
p2338
aS'rr_data/e02046.rr.txt\n'
p2339
aS'rr_data/e00288.rr.txt\n'
p2340
aS'rr_data/e00229.rr.txt\n'
p2341
aS'rr_data/e00246.rr.txt\n'
p2342
aS'rr_data/e02009.rr.txt\n'
p2343
aS'rr_data/e00294.rr.txt\n'
p2344
aS'rr_data/e00454.rr.txt\n'
p2345
aS'rr_data/e00569.rr.txt\n'
p2346
aS'rr_data/e01808.rr.txt\n'
p2347
aS'rr_data/e02062.rr.txt\n'
p2348
aS'rr_data/e01639.rr.txt\n'
p2349
aS'rr_data/b0158.rr.txt\n'
p2350
aS'rr_data/a0250.rr.txt\n'
p2351
aS'rr_data/e00440.rr.txt\n'
p2352
aS'rr_data/e00777.rr.txt\n'
p2353
aS'rr_data/d0053.rr.txt\n'
p2354
aS'rr_data/a0102.rr.txt\n'
p2355
aS'rr_data/e00711.rr.txt\n'
p2356
aS'rr_data/e01927.rr.txt\n'
p2357
aS'rr_data/e00273.rr.txt\n'
p2358
aS'rr_data/e00931.rr.txt\n'
p2359
aS'rr_data/b0353.rr.txt\n'
p2360
aS'rr_data/e00821.rr.txt\n'
p2361
aS'rr_data/e01801.rr.txt\n'
p2362
aS'rr_data/e00950.rr.txt\n'
p2363
aS'rr_data/e01679.rr.txt\n'
p2364
aS'rr_data/e00810.rr.txt\n'
p2365
aS'rr_data/e00297.rr.txt\n'
p2366
aS'rr_data/e00001.rr.txt\n'
p2367
aS'rr_data/e01335.rr.txt\n'
p2368
aS'rr_data/e01368.rr.txt\n'
p2369
aS'rr_data/b0069.rr.txt\n'
p2370
aS'rr_data/e00943.rr.txt\n'
p2371
aS'rr_data/e00544.rr.txt\n'
p2372
aS'rr_data/e00490.rr.txt\n'
p2373
aS'rr_data/e00634.rr.txt\n'
p2374
aS'rr_data/e01081.rr.txt\n'
p2375
aS'rr_data/e02114.rr.txt\n'
p2376
aS'rr_data/e00410.rr.txt\n'
p2377
aS'rr_data/e00046.rr.txt\n'
p2378
aS'rr_data/e00451.rr.txt\n'
p2379
aS'rr_data/e02040.rr.txt\n'
p2380
aS'rr_data/e00680.rr.txt\n'
p2381
aS'rr_data/e00147.rr.txt\n'
p2382
aS'rr_data/e01473.rr.txt\n'
p2383
aS'rr_data/b0178.rr.txt\n'
p2384
aS'rr_data/e01114.rr.txt\n'
p2385
aS'rr_data/e00770.rr.txt\n'
p2386
aS'rr_data/e01330.rr.txt\n'
p2387
aS'rr_data/e00840.rr.txt\n'
p2388
aS'rr_data/e01621.rr.txt\n'
p2389
aS'rr_data/e00565.rr.txt\n'
p2390
aS'rr_data/f0015.rr.txt\n'
p2391
aS'rr_data/e00387.rr.txt\n'
p2392
aS'rr_data/e00879.rr.txt\n'
p2393
aS'rr_data/b0153.rr.txt\n'
p2394
aS'rr_data/e00298.rr.txt\n'
p2395
aS'rr_data/e01906.rr.txt\n'
p2396
aS'rr_data/e00674.rr.txt\n'
p2397
aS'rr_data/e00886.rr.txt\n'
p2398
aS'rr_data/e01402.rr.txt\n'
p2399
aS'rr_data/e02067.rr.txt\n'
p2400
aS'rr_data/e01047.rr.txt\n'
p2401
aS'rr_data/a0109.rr.txt\n'
p2402
aS'rr_data/b0223.rr.txt\n'
p2403
aS'rr_data/a0323.rr.txt\n'
p2404
aS'rr_data/e01508.rr.txt\n'
p2405
aS'rr_data/a0283.rr.txt\n'
p2406
aS'rr_data/e00992.rr.txt\n'
p2407
aS'rr_data/e00566.rr.txt\n'
p2408
aS'rr_data/a0342.rr.txt\n'
p2409
aS'rr_data/e00212.rr.txt\n'
p2410
aS'rr_data/e02031.rr.txt\n'
p2411
aS'rr_data/e01731.rr.txt\n'
p2412
aS'rr_data/e01206.rr.txt\n'
p2413
aS'rr_data/f0088.rr.txt\n'
p2414
aS'rr_data/e01478.rr.txt\n'
p2415
aS'rr_data/e01835.rr.txt\n'
p2416
aS'rr_data/b0291.rr.txt\n'
p2417
aS'rr_data/b0099.rr.txt\n'
p2418
aS'rr_data/e01932.rr.txt\n'
p2419
aS'rr_data/e00977.rr.txt\n'
p2420
aS'rr_data/e01879.rr.txt\n'
p2421
aS'rr_data/b0205.rr.txt\n'
p2422
aS'rr_data/e01678.rr.txt\n'
p2423
aS'rr_data/b0414.rr.txt\n'
p2424
aS'rr_data/e00061.rr.txt\n'
p2425
aS'rr_data/e01482.rr.txt\n'
p2426
aS'rr_data/d0015.rr.txt\n'
p2427
aS'rr_data/f0021.rr.txt\n'
p2428
aS'rr_data/f0094.rr.txt\n'
p2429
aS'rr_data/e02081.rr.txt\n'
p2430
aS'rr_data/b0087.rr.txt\n'
p2431
aS'rr_data/e00961.rr.txt\n'
p2432
aS'rr_data/e00561.rr.txt\n'
p2433
aS'rr_data/e01104.rr.txt\n'
p2434
aS'rr_data/e01357.rr.txt\n'
p2435
aS'rr_data/e00656.rr.txt\n'
p2436
aS'rr_data/b0229.rr.txt\n'
p2437
aS'rr_data/e00398.rr.txt\n'
p2438
aS'rr_data/e01268.rr.txt\n'
p2439
aS'rr_data/e00248.rr.txt\n'
p2440
aS'rr_data/e01323.rr.txt\n'
p2441
aS'rr_data/e00469.rr.txt\n'
p2442
aS'rr_data/e02106.rr.txt\n'
p2443
aS'rr_data/e00589.rr.txt\n'
p2444
aS'rr_data/b0125.rr.txt\n'
p2445
aS'rr_data/e00863.rr.txt\n'
p2446
aS'rr_data/e01577.rr.txt\n'
p2447
aS'rr_data/e01786.rr.txt\n'
p2448
aS'rr_data/e01077.rr.txt\n'
p2449
aS'rr_data/e00790.rr.txt\n'
p2450
aS'rr_data/e01409.rr.txt\n'
p2451
aS'rr_data/e00506.rr.txt\n'
p2452
aS'rr_data/e01909.rr.txt\n'
p2453
aS'rr_data/e01667.rr.txt\n'
p2454
aS'rr_data/e02109.rr.txt\n'
p2455
aS'rr_data/e01776.rr.txt\n'
p2456
aS'rr_data/e00082.rr.txt\n'
p2457
aS'rr_data/e00782.rr.txt\n'
p2458
aS'rr_data/e00432.rr.txt\n'
p2459
aS'rr_data/e00096.rr.txt\n'
p2460
aS'rr_data/b0073.rr.txt\n'
p2461
aS'rr_data/e01541.rr.txt\n'
p2462
aS'rr_data/e02014.rr.txt\n'
p2463
aS'rr_data/e00517.rr.txt\n'
p2464
aS'rr_data/e00300.rr.txt\n'
p2465
aS'rr_data/e00233.rr.txt\n'
p2466
aS'rr_data/b0145.rr.txt\n'
p2467
aS'rr_data/e01140.rr.txt\n'
p2468
aS'rr_data/e00226.rr.txt\n'
p2469
aS'rr_data/e01360.rr.txt\n'
p2470
aS'rr_data/f0014.rr.txt\n'
p2471
aS'rr_data/b0330.rr.txt\n'
p2472
aS'rr_data/b0052.rr.txt\n'
p2473
aS'rr_data/e01629.rr.txt\n'
p2474
aS'rr_data/e00911.rr.txt\n'
p2475
aS'rr_data/b0161.rr.txt\n'
p2476
aS'rr_data/e01444.rr.txt\n'
p2477
aS'rr_data/e01910.rr.txt\n'
p2478
aS'rr_data/e02070.rr.txt\n'
p2479
aS'rr_data/e01672.rr.txt\n'
p2480
aS'rr_data/e00416.rr.txt\n'
p2481
aS'rr_data/e01762.rr.txt\n'
p2482
aS'rr_data/e02096.rr.txt\n'
p2483
aS'rr_data/e01897.rr.txt\n'
p2484
aS'rr_data/e00596.rr.txt\n'
p2485
aS'rr_data/e00804.rr.txt\n'
p2486
aS'rr_data/e00144.rr.txt\n'
p2487
aS'rr_data/e01738.rr.txt\n'
p2488
aS'rr_data/e00882.rr.txt\n'
p2489
aS'rr_data/e01333.rr.txt\n'
p2490
aS'rr_data/e02041.rr.txt\n'
p2491
aS'rr_data/e00237.rr.txt\n'
p2492
aS'rr_data/a0302.rr.txt\n'
p2493
aS'rr_data/e01490.rr.txt\n'
p2494
aS'rr_data/e01698.rr.txt\n'
p2495
aS'rr_data/e01591.rr.txt\n'
p2496
aS'rr_data/e01688.rr.txt\n'
p2497
aS'rr_data/e01770.rr.txt\n'
p2498
aS'rr_data/a0118.rr.txt\n'
p2499
aS'rr_data/f0006.rr.txt\n'
p2500
aS'rr_data/e01264.rr.txt\n'
p2501
aS'rr_data/b0100.rr.txt\n'
p2502
aS'rr_data/e01951.rr.txt\n'
p2503
aS'rr_data/e00687.rr.txt\n'
p2504
aS'rr_data/e01371.rr.txt\n'
p2505
aS'rr_data/e01714.rr.txt\n'
p2506
aS'rr_data/b0315.rr.txt\n'
p2507
aS'rr_data/b0177.rr.txt\n'
p2508
aS'rr_data/e01149.rr.txt\n'
p2509
aS'rr_data/e01015.rr.txt\n'
p2510
aS'rr_data/e01068.rr.txt\n'
p2511
aS'rr_data/e00350.rr.txt\n'
p2512
aS'rr_data/f0066.rr.txt\n'
p2513
aS'rr_data/e02061.rr.txt\n'
p2514
aS'rr_data/e00525.rr.txt\n'
p2515
aS'rr_data/e01200.rr.txt\n'
p2516
aS'rr_data/e00031.rr.txt\n'
p2517
aS'rr_data/e00572.rr.txt\n'
p2518
aS'rr_data/b0442.rr.txt\n'
p2519
aS'rr_data/e00316.rr.txt\n'
p2520
aS'rr_data/e02077.rr.txt\n'
p2521
aS'rr_data/e00915.rr.txt\n'
p2522
aS'rr_data/e00385.rr.txt\n'
p2523
aS'rr_data/c0011.rr.txt\n'
p2524
aS'rr_data/b0226.rr.txt\n'
p2525
aS'rr_data/e01469.rr.txt\n'
p2526
aS'rr_data/b0104.rr.txt\n'
p2527
aS'rr_data/b0156.rr.txt\n'
p2528
aS'rr_data/e00012.rr.txt\n'
p2529
aS'rr_data/e01146.rr.txt\n'
p2530
aS'rr_data/e00323.rr.txt\n'
p2531
aS'rr_data/b0402.rr.txt\n'
p2532
aS'rr_data/e00028.rr.txt\n'
p2533
aS'rr_data/e00306.rr.txt\n'
p2534
aS'rr_data/e00313.rr.txt\n'
p2535
aS'rr_data/e00204.rr.txt\n'
p2536
aS'rr_data/e00089.rr.txt\n'
p2537
aS'rr_data/e00570.rr.txt\n'
p2538
aS'rr_data/e01823.rr.txt\n'
p2539
aS'rr_data/e01887.rr.txt\n'
p2540
aS'rr_data/e00857.rr.txt\n'
p2541
aS'rr_data/e00034.rr.txt\n'
p2542
aS'rr_data/e01052.rr.txt\n'
p2543
aS'rr_data/e02063.rr.txt\n'
p2544
aS'rr_data/f0042.rr.txt\n'
p2545
aS'rr_data/a0351.rr.txt\n'
p2546
aS'rr_data/e00201.rr.txt\n'
p2547
aS'rr_data/e00870.rr.txt\n'
p2548
aS'rr_data/e02141.rr.txt\n'
p2549
aS'rr_data/e00058.rr.txt\n'
p2550
aS'rr_data/e00942.rr.txt\n'
p2551
aS'rr_data/e00340.rr.txt\n'
p2552
aS'rr_data/e00045.rr.txt\n'
p2553
aS'rr_data/e00053.rr.txt\n'
p2554
aS'rr_data/e00407.rr.txt\n'
p2555
aS'rr_data/e01551.rr.txt\n'
p2556
aS'rr_data/e00232.rr.txt\n'
p2557
aS'rr_data/e01051.rr.txt\n'
p2558
aS'rr_data/e00331.rr.txt\n'
p2559
aS'rr_data/a0071.rr.txt\n'
p2560
aS'rr_data/e01164.rr.txt\n'
p2561
aS'rr_data/e00988.rr.txt\n'
p2562
aS'rr_data/e00352.rr.txt\n'
p2563
aS'rr_data/e00037.rr.txt\n'
p2564
aS'rr_data/e01805.rr.txt\n'
p2565
aS'rr_data/a0179.rr.txt\n'
p2566
aS'rr_data/e00661.rr.txt\n'
p2567
aS'rr_data/e00580.rr.txt\n'
p2568
aS'rr_data/e01888.rr.txt\n'
p2569
aS'rr_data/e01793.rr.txt\n'
p2570
aS'rr_data/b0007.rr.txt\n'
p2571
aS'rr_data/e00660.rr.txt\n'
p2572
aS'rr_data/e01403.rr.txt\n'
p2573
aS'rr_data/e01923.rr.txt\n'
p2574
aS'rr_data/e01773.rr.txt\n'
p2575
a.